(dp1
S'14699'
p2
(dp3
S'catalogInfo'
p4
(lp5
(dp6
VCOMMENTCODE
p7
NsVRCS_SIZE
p8
VLARGE
p9
sVCOUNTRY
p10
VCIS
p11
sVLAUNCH_YEAR
p12
V1984
p13
sVFILE
p14
V6006
p15
sVCOMMENT
p16
NsVRCSVALUE
p17
V0
sVDECAY
p18
NsVOBJECT_ID
p19
V1984-013A
p20
sVOBJECT_NAME
p21
VCOSMOS 1536
p22
sVLAUNCH_NUM
p23
V13
p24
sVLAUNCH_PIECE
p25
VA
sVSATNAME
p26
VCOSMOS 1536
p27
sVOBJECT_TYPE
p28
VPAYLOAD
p29
sVSITE
p30
VPKMTR
p31
sVPERIOD
p32
V95.69
p33
sVCURRENT
p34
VY
sVNORAD_CAT_ID
p35
V14699
p36
sVINCLINATION
p37
V82.52
p38
sVINTLDES
p39
V1984-013A
p40
sVPERIGEE
p41
V543
p42
sVLAUNCH
p43
V1984-02-08
p44
sVOBJECT_NUMBER
p45
V14699
p46
sVAPOGEE
p47
V560
p48
sasS'tle'
p49
V1 14699U 84013A   16348.88955599 -.00000014  00000-0 -30074-5 0  9991\u000a2 14699  82.5248 148.9098 0011900 332.8852  27.1752 15.04922834785227\u000a
p50
ssS'31114'
p51
(dp52
g4
(lp53
(dp54
VCOMMENTCODE
p55
NsVRCS_SIZE
p56
VLARGE
p57
sVCOUNTRY
p58
VPRC
p59
sVLAUNCH_YEAR
p60
V2007
p61
sVFILE
p62
V6006
p63
sVCOMMENT
p64
NsVRCSVALUE
p65
V0
sVDECAY
p66
NsVOBJECT_ID
p67
V2007-010B
p68
sVOBJECT_NAME
p69
VCZ-2C R/B
p70
sVLAUNCH_NUM
p71
V10
p72
sVLAUNCH_PIECE
p73
VB
sVSATNAME
p74
VCZ-2C R/B
p75
sVOBJECT_TYPE
p76
VROCKET BODY
p77
sVSITE
p78
VTSC
p79
sVPERIOD
p80
V101.46
p81
sVCURRENT
p82
VY
sVNORAD_CAT_ID
p83
V31114
p84
sVINCLINATION
p85
V98.41
p86
sVINTLDES
p87
V2007-010B
p88
sVPERIGEE
p89
V784
p90
sVLAUNCH
p91
V2007-04-11
p92
sVOBJECT_NUMBER
p93
V31114
p94
sVAPOGEE
p95
V872
p96
sasg49
V1 31114U 07010B   16348.21801933  .00000019  00000-0  28141-4 0  9997\u000a2 31114  98.4094 254.1877 0060514  36.2645 324.2611 14.19227199501147\u000a
p97
ssS'13403'
p98
(dp99
g4
(lp100
(dp101
VCOMMENTCODE
p102
NsVRCS_SIZE
p103
VLARGE
p104
sVCOUNTRY
p105
VCIS
p106
sVLAUNCH_YEAR
p107
V1982
p108
sVFILE
p109
V6006
p110
sVCOMMENT
p111
NsVRCSVALUE
p112
V0
sVDECAY
p113
NsVOBJECT_ID
p114
V1982-079B
p115
sVOBJECT_NAME
p116
VSL-3 R/B
p117
sVLAUNCH_NUM
p118
V79
p119
sVLAUNCH_PIECE
p120
VB
sVSATNAME
p121
VSL-3 R/B
p122
sVOBJECT_TYPE
p123
VROCKET BODY
p124
sVSITE
p125
VPKMTR
p126
sVPERIOD
p127
V95.59
p128
sVCURRENT
p129
VY
sVNORAD_CAT_ID
p130
V13403
p131
sVINCLINATION
p132
V81.17
p133
sVINTLDES
p134
V1982-079B
p135
sVPERIGEE
p136
V523
p137
sVLAUNCH
p138
V1982-08-05
p139
sVOBJECT_NUMBER
p140
V13403
p141
sVAPOGEE
p142
V571
p143
sasg49
V1 13403U 82079B   16348.15012113  .00000036  00000-0  78779-6 0  9996\u000a2 13403  81.1697 122.4030 0034534 169.7776 190.4158 15.06437709868719\u000a
p144
ssS'27597'
p145
(dp146
g4
(lp147
(dp148
VCOMMENTCODE
p149
NsVRCS_SIZE
p150
VLARGE
p151
sVCOUNTRY
p152
VJPN
p153
sVLAUNCH_YEAR
p154
V2002
p155
sVFILE
p156
V5999
p157
sVCOMMENT
p158
NsVRCSVALUE
p159
V0
sVDECAY
p160
NsVOBJECT_ID
p161
V2002-056A
p162
sVOBJECT_NAME
p163
VADEOS 2
p164
sVLAUNCH_NUM
p165
V56
p166
sVLAUNCH_PIECE
p167
VA
sVSATNAME
p168
VADEOS 2
p169
sVOBJECT_TYPE
p170
VPAYLOAD
p171
sVSITE
p172
VTNSTA
p173
sVPERIOD
p174
V100.89
p175
sVCURRENT
p176
VY
sVNORAD_CAT_ID
p177
V27597
p178
sVINCLINATION
p179
V98.34
p180
sVINTLDES
p181
V2002-056A
p182
sVPERIGEE
p183
V800
p184
sVLAUNCH
p185
V2002-12-14
p186
sVOBJECT_NUMBER
p187
V27597
p188
sVAPOGEE
p189
V802
p190
sasg49
V1 27597U 02056A   16347.92616077 +.00000060 +00000-0 +41303-4 0  9993\u000a2 27597 098.3446 319.6634 0001720 118.1875 241.9480 14.27254509728856\u000a
p191
ssS'21088'
p192
(dp193
g4
(lp194
(dp195
VCOMMENTCODE
p196
NsVRCS_SIZE
p197
VLARGE
p198
sVCOUNTRY
p199
VCIS
p200
sVLAUNCH_YEAR
p201
V1991
p202
sVFILE
p203
V6001
p204
sVCOMMENT
p205
NsVRCSVALUE
p206
V0
sVDECAY
p207
NsVOBJECT_ID
p208
V1991-006B
p209
sVOBJECT_NAME
p210
VSL-8 R/B
p211
sVLAUNCH_NUM
p212
V6
sVLAUNCH_PIECE
p213
VB
sVSATNAME
p214
VSL-8 R/B
p215
sVOBJECT_TYPE
p216
VROCKET BODY
p217
sVSITE
p218
VPKMTR
p219
sVPERIOD
p220
V104.57
p221
sVCURRENT
p222
VY
sVNORAD_CAT_ID
p223
V21088
p224
sVINCLINATION
p225
V82.94
p226
sVINTLDES
p227
V1991-006B
p228
sVPERIGEE
p229
V957
p230
sVLAUNCH
p231
V1991-01-29
p232
sVOBJECT_NUMBER
p233
V21088
p234
sVAPOGEE
p235
V992
p236
sasg49
V1 21088U 91006B   16348.55788043 -.00000057  00000-0 -73741-4 0  9997\u000a2 21088  82.9409 158.2329 0023585 118.7238 301.3822 13.77038215300050\u000a
p237
ssS'18153'
p238
(dp239
g4
(lp240
(dp241
VCOMMENTCODE
p242
NsVRCS_SIZE
p243
VLARGE
p244
sVCOUNTRY
p245
VCIS
p246
sVLAUNCH_YEAR
p247
V1987
p248
sVFILE
p249
V6007
p250
sVCOMMENT
p251
NsVRCSVALUE
p252
V0
sVDECAY
p253
NsVOBJECT_ID
p254
V1987-055B
p255
sVOBJECT_NAME
p256
VSL-14 R/B
p257
sVLAUNCH_NUM
p258
V55
p259
sVLAUNCH_PIECE
p260
VB
sVSATNAME
p261
VSL-14 R/B
p262
sVOBJECT_TYPE
p263
VROCKET BODY
p264
sVSITE
p265
VPKMTR
p266
sVPERIOD
p267
V97.09
p268
sVCURRENT
p269
VY
sVNORAD_CAT_ID
p270
V18153
p271
sVINCLINATION
p272
V82.50
p273
sVINTLDES
p274
V1987-055B
p275
sVPERIGEE
p276
V605
p277
sVLAUNCH
p278
V1987-07-01
p279
sVOBJECT_NUMBER
p280
V18153
p281
sVAPOGEE
p282
V634
p283
sasg49
V1 18153U 87055B   16348.40964821  .00000085  00000-0  74830-5 0  9999\u000a2 18153  82.5011 278.8871 0021087 339.5627  20.4742 14.83153028590829\u000a
p284
ssS'694'
p285
(dp286
g4
(lp287
(dp288
VCOMMENTCODE
p289
NsVRCS_SIZE
p290
VLARGE
p291
sVCOUNTRY
p292
VUS
p293
sVLAUNCH_YEAR
p294
V1963
p295
sVFILE
p296
V6008
p297
sVCOMMENT
p298
NsVRCSVALUE
p299
V0
sVDECAY
p300
NsVOBJECT_ID
p301
V1963-047A
p302
sVOBJECT_NAME
p303
VATLAS CENTAUR 2 R/B
p304
sVLAUNCH_NUM
p305
V47
p306
sVLAUNCH_PIECE
p307
VA
sVSATNAME
p308
VATLAS CENTAUR 2 R/B
p309
sVOBJECT_TYPE
p310
VROCKET BODY
p311
sVSITE
p312
VAFETR
p313
sVPERIOD
p314
V102.71
p315
sVCURRENT
p316
VY
sVNORAD_CAT_ID
p317
V694
p318
sVINCLINATION
p319
V30.36
p320
sVINTLDES
p321
V1963-047A
p322
sVPERIGEE
p323
V460
p324
sVLAUNCH
p325
V1963-11-27
p326
sVOBJECT_NUMBER
p327
V694
p328
sVAPOGEE
p329
V1315
p330
sasg49
V1 00694U 63047A   16348.46582583  .00000753  00000-0  83177-4 0  9997\u000a2 00694  30.3590 106.5133 0588428 220.4576 135.0811 14.01959400656639\u000a
p331
ssS'31598'
p332
(dp333
g4
(lp334
(dp335
VCOMMENTCODE
p336
NsVRCS_SIZE
p337
VLARGE
p338
sVCOUNTRY
p339
VIT
p340
sVLAUNCH_YEAR
p341
V2007
p342
sVFILE
p343
V6007
p344
sVCOMMENT
p345
NsVRCSVALUE
p346
V0
sVDECAY
p347
NsVOBJECT_ID
p348
V2007-023A
p349
sVOBJECT_NAME
p350
VSKYMED 1
p351
sVLAUNCH_NUM
p352
V23
p353
sVLAUNCH_PIECE
p354
VA
sVSATNAME
p355
VSKYMED 1
p356
sVOBJECT_TYPE
p357
VPAYLOAD
p358
sVSITE
p359
VAFWTR
p360
sVPERIOD
p361
V97.16
p362
sVCURRENT
p363
VY
sVNORAD_CAT_ID
p364
V31598
p365
sVINCLINATION
p366
V97.87
p367
sVINTLDES
p368
V2007-023A
p369
sVPERIGEE
p370
V622
p371
sVLAUNCH
p372
V2007-06-08
p373
sVOBJECT_NUMBER
p374
V31598
p375
sVAPOGEE
p376
V623
p377
sasg49
V1 31598U 07023A   16348.85760111 -.00000228  00000-0 -22111-4 0  9994\u000a2 31598  97.8737 169.4163 0001294  90.0051 270.1325 14.82157141514992\u000a
p378
ssS'14820'
p379
(dp380
g4
(lp381
(dp382
VCOMMENTCODE
p383
NsVRCS_SIZE
p384
VLARGE
p385
sVCOUNTRY
p386
VCIS
p387
sVLAUNCH_YEAR
p388
V1984
p389
sVFILE
p390
V6006
p391
sVCOMMENT
p392
NsVRCSVALUE
p393
V0
sVDECAY
p394
NsVOBJECT_ID
p395
V1984-027B
p396
sVOBJECT_NAME
p397
VSL-14 R/B
p398
sVLAUNCH_NUM
p399
V27
p400
sVLAUNCH_PIECE
p401
VB
sVSATNAME
p402
VSL-14 R/B
p403
sVOBJECT_TYPE
p404
VROCKET BODY
p405
sVSITE
p406
VPKMTR
p407
sVPERIOD
p408
V97.07
p409
sVCURRENT
p410
VY
sVNORAD_CAT_ID
p411
V14820
p412
sVINCLINATION
p413
V82.54
p414
sVINTLDES
p415
V1984-027B
p416
sVPERIGEE
p417
V606
p418
sVLAUNCH
p419
V1984-03-15
p420
sVOBJECT_NUMBER
p421
V14820
p422
sVAPOGEE
p423
V631
p424
sasg49
V1 14820U 84027B   16348.84955963  .00000081  00000-0  69494-5 0  9993\u000a2 14820  82.5415 158.4343 0017713 315.5973  44.3821 14.83528830768489\u000a
p425
ssS'18958'
p426
(dp427
g4
(lp428
(dp429
VCOMMENTCODE
p430
NsVRCS_SIZE
p431
VLARGE
p432
sVCOUNTRY
p433
VCIS
p434
sVLAUNCH_YEAR
p435
V1988
p436
sVFILE
p437
V5999
p438
sVCOMMENT
p439
NsVRCSVALUE
p440
V0
sVDECAY
p441
NsVOBJECT_ID
p442
V1988-020A
p443
sVOBJECT_NAME
p444
VCOSMOS 1933
p445
sVLAUNCH_NUM
p446
V20
p447
sVLAUNCH_PIECE
p448
VA
sVSATNAME
p449
VCOSMOS 1933
p450
sVOBJECT_TYPE
p451
VPAYLOAD
p452
sVSITE
p453
VPKMTR
p454
sVPERIOD
p455
V95.80
p456
sVCURRENT
p457
VY
sVNORAD_CAT_ID
p458
V18958
p459
sVINCLINATION
p460
V82.53
p461
sVINTLDES
p462
V1988-020A
p463
sVPERIGEE
p464
V550
p465
sVLAUNCH
p466
V1988-03-15
p467
sVOBJECT_NUMBER
p468
V18958
p469
sVAPOGEE
p470
V565
p471
sasg49
V1 18958U 88020A   16348.21457339  .00000129  00000-0  74597-5 0  9994\u000a2 18958  82.5300 283.2663 0011258 186.7776 173.3299 15.03106454563591\u000a
p472
ssS'11267'
p473
(dp474
g4
(lp475
(dp476
VCOMMENTCODE
p477
NsVRCS_SIZE
p478
VLARGE
p479
sVCOUNTRY
p480
VCIS
p481
sVLAUNCH_YEAR
p482
V1979
p483
sVFILE
p484
V6006
p485
sVCOMMENT
p486
NsVRCSVALUE
p487
V0
sVDECAY
p488
NsVOBJECT_ID
p489
V1979-011B
p490
sVOBJECT_NAME
p491
VSL-14 R/B
p492
sVLAUNCH_NUM
p493
V11
p494
sVLAUNCH_PIECE
p495
VB
sVSATNAME
p496
VSL-14 R/B
p497
sVOBJECT_TYPE
p498
VROCKET BODY
p499
sVSITE
p500
VPKMTR
p501
sVPERIOD
p502
V96.72
p503
sVCURRENT
p504
VY
sVNORAD_CAT_ID
p505
V11267
p506
sVINCLINATION
p507
V82.53
p508
sVINTLDES
p509
V1979-011B
p510
sVPERIGEE
p511
V589
p512
sVLAUNCH
p513
V1979-02-12
p514
sVOBJECT_NUMBER
p515
V11267
p516
sVAPOGEE
p517
V614
p518
sasg49
V1 11267U 79011B   16348.73880944  .00000117  00000-0  97955-5 0  9999\u000a2 11267  82.5259  44.5650 0018260 123.7455 236.5506 14.88808302 47873\u000a
p519
ssS'28059'
p520
(dp521
g4
(lp522
(dp523
VCOMMENTCODE
p524
NsVRCS_SIZE
p525
VLARGE
p526
sVCOUNTRY
p527
VPRC
p528
sVLAUNCH_YEAR
p529
V2003
p530
sVFILE
p531
V6006
p532
sVCOMMENT
p533
NsVRCSVALUE
p534
V0
sVDECAY
p535
NsVOBJECT_ID
p536
V2003-049C
p537
sVOBJECT_NAME
p538
VCZ-4 R/B
p539
sVLAUNCH_NUM
p540
V49
p541
sVLAUNCH_PIECE
p542
VC
sVSATNAME
p543
VCZ-4 R/B
p544
sVOBJECT_TYPE
p545
VROCKET BODY
p546
sVSITE
p547
VTSC
p548
sVPERIOD
p549
V99.14
p550
sVCURRENT
p551
VY
sVNORAD_CAT_ID
p552
V28059
p553
sVINCLINATION
p554
V98.59
p555
sVINTLDES
p556
V2003-049C
p557
sVPERIGEE
p558
V681
p559
sVLAUNCH
p560
V2003-10-21
p561
sVOBJECT_NUMBER
p562
V28059
p563
sVAPOGEE
p564
V754
p565
sasg49
V1 28059U 03049C   16348.78886966  .00000028  00000-0  18679-4 0  9995\u000a2 28059  98.5853 224.7395 0051304  92.5468 310.0059 14.52469776696766\u000a
p566
ssS'19210'
p567
(dp568
g4
(lp569
(dp570
VCOMMENTCODE
p571
NsVRCS_SIZE
p572
VLARGE
p573
sVCOUNTRY
p574
VCIS
p575
sVLAUNCH_YEAR
p576
V1988
p577
sVFILE
p578
V6006
p579
sVCOMMENT
p580
NsVRCSVALUE
p581
V0
sVDECAY
p582
NsVOBJECT_ID
p583
V1988-050A
p584
sVOBJECT_NAME
p585
VCOSMOS 1953
p586
sVLAUNCH_NUM
p587
V50
p588
sVLAUNCH_PIECE
p589
VA
sVSATNAME
p590
VCOSMOS 1953
p591
sVOBJECT_TYPE
p592
VPAYLOAD
p593
sVSITE
p594
VPKMTR
p595
sVPERIOD
p596
V95.68
p597
sVCURRENT
p598
VY
sVNORAD_CAT_ID
p599
V19210
p600
sVINCLINATION
p601
V82.52
p602
sVINTLDES
p603
V1988-050A
p604
sVPERIGEE
p605
V542
p606
sVLAUNCH
p607
V1988-06-14
p608
sVOBJECT_NUMBER
p609
V19210
p610
sVAPOGEE
p611
V561
p612
sasg49
V1 19210U 88050A   16347.75273294  .00000091  00000-0  43016-5 0  9993\u000a2 19210  82.5173 214.1077 0013686 169.1358 191.0167 15.05074179549798\u000a
p613
ssS'23560'
p614
(dp615
g4
(lp616
(dp617
VCOMMENTCODE
p618
NsVRCS_SIZE
p619
VLARGE
p620
sVCOUNTRY
p621
VESA
p622
sVLAUNCH_YEAR
p623
V1995
p624
sVFILE
p625
V6008
p626
sVCOMMENT
p627
NsVRCSVALUE
p628
V0
sVDECAY
p629
NsVOBJECT_ID
p630
V1995-021A
p631
sVOBJECT_NAME
p632
VERS 2
p633
sVLAUNCH_NUM
p634
V21
p635
sVLAUNCH_PIECE
p636
VA
sVSATNAME
p637
VERS 2
p638
sVOBJECT_TYPE
p639
VPAYLOAD
p640
sVSITE
p641
VFRGUI
p642
sVPERIOD
p643
V94.74
p644
sVCURRENT
p645
VY
sVNORAD_CAT_ID
p646
V23560
p647
sVINCLINATION
p648
V98.54
p649
sVINTLDES
p650
V1995-021A
p651
sVPERIGEE
p652
V504
p653
sVLAUNCH
p654
V1995-04-21
p655
sVOBJECT_NUMBER
p656
V23560
p657
sVAPOGEE
p658
V508
p659
sasg49
V1 23560U 95021A   16348.50009219  .00001531  00000-0  75079-4 0  9993\u000a2 23560  98.5357 310.2017 0003051 197.3283 162.7845 15.20014139147170\u000a
p660
ssS'28480'
p661
(dp662
g4
(lp663
(dp664
VCOMMENTCODE
p665
NsVRCS_SIZE
p666
VLARGE
p667
sVCOUNTRY
p668
VPRC
p669
sVLAUNCH_YEAR
p670
V2004
p671
sVFILE
p672
V5999
p673
sVCOMMENT
p674
NsVRCSVALUE
p675
V0
sVDECAY
p676
NsVOBJECT_ID
p677
V2004-046B
p678
sVOBJECT_NAME
p679
VCZ-2C R/B
p680
sVLAUNCH_NUM
p681
V46
p682
sVLAUNCH_PIECE
p683
VB
sVSATNAME
p684
VCZ-2C R/B
p685
sVOBJECT_TYPE
p686
VROCKET BODY
p687
sVSITE
p688
VXSC
p689
sVPERIOD
p690
V101.01
p691
sVCURRENT
p692
VY
sVNORAD_CAT_ID
p693
V28480
p694
sVINCLINATION
p695
V98.19
p696
sVINTLDES
p697
V2004-046B
p698
sVPERIGEE
p699
V704
p700
sVLAUNCH
p701
V2004-11-18
p702
sVOBJECT_NUMBER
p703
V28480
p704
sVAPOGEE
p705
V909
p706
sasg49
V1 28480U 04046B   16347.84069821 -.00000002  00000-0  14495-4 0  9995\u000a2 28480  98.1946  90.0838 0143015  54.8250  53.3258 14.25619773627687\u000a
p707
ssS'29507'
p708
(dp709
g4
(lp710
(dp711
VCOMMENTCODE
p712
NsVRCS_SIZE
p713
VLARGE
p714
sVCOUNTRY
p715
VPRC
p716
sVLAUNCH_YEAR
p717
V2006
p718
sVFILE
p719
V6009
p720
sVCOMMENT
p721
NsVRCSVALUE
p722
V0
sVDECAY
p723
NsVOBJECT_ID
p724
V2006-046C
p725
sVOBJECT_NAME
p726
VCZ-4 R/B
p727
sVLAUNCH_NUM
p728
V46
p729
sVLAUNCH_PIECE
p730
VC
sVSATNAME
p731
VCZ-4 R/B
p732
sVOBJECT_TYPE
p733
VROCKET BODY
p734
sVSITE
p735
VTSC
p736
sVPERIOD
p737
V96.00
p738
sVCURRENT
p739
VY
sVNORAD_CAT_ID
p740
V29507
p741
sVINCLINATION
p742
V97.79
p743
sVINTLDES
p744
V2006-046C
p745
sVPERIGEE
p746
V538
p747
sVLAUNCH
p748
V2006-10-23
p749
sVOBJECT_NUMBER
p750
V29507
p751
sVAPOGEE
p752
V597
p753
sasg49
V1 29507U 06046C   16348.49102665  .00000910  00000-0  76955-4 0  9990\u000a2 29507  97.7872 349.8462 0042434 155.7375 204.5859 14.99939856553202\u000a
p754
ssS'20453'
p755
(dp756
g4
(lp757
(dp758
VCOMMENTCODE
p759
NsVRCS_SIZE
p760
VLARGE
p761
sVCOUNTRY
p762
VUS
p763
sVLAUNCH_YEAR
p764
V1990
p765
sVFILE
p766
V6007
p767
sVCOMMENT
p768
NsVRCSVALUE
p769
V0
sVDECAY
p770
NsVOBJECT_ID
p771
V1990-008B
p772
sVOBJECT_NAME
p773
VDELTA 2 R/B(1)
p774
sVLAUNCH_NUM
p775
V8
sVLAUNCH_PIECE
p776
VB
sVSATNAME
p777
VDELTA 2 R/B(1)
p778
sVOBJECT_TYPE
p779
VROCKET BODY
p780
sVSITE
p781
VAFETR
p782
sVPERIOD
p783
V97.13
p784
sVCURRENT
p785
VY
sVNORAD_CAT_ID
p786
V20453
p787
sVINCLINATION
p788
V35.62
p789
sVINTLDES
p790
V1990-008B
p791
sVPERIGEE
p792
V418
p793
sVLAUNCH
p794
V1990-01-24
p795
sVOBJECT_NUMBER
p796
V20453
p797
sVAPOGEE
p798
V825
p799
sasg49
V1 20453U 90008B   16348.82569986  .00001829  00000-0  10915-3 0  9995\u000a2 20453  35.6242 238.8834 0290558  67.1055 296.0055 14.82586990420675\u000a
p800
ssS'17567'
p801
(dp802
g4
(lp803
(dp804
VCOMMENTCODE
p805
NsVRCS_SIZE
p806
VLARGE
p807
sVCOUNTRY
p808
VCIS
p809
sVLAUNCH_YEAR
p810
V1987
p811
sVFILE
p812
V6006
p813
sVCOMMENT
p814
NsVRCSVALUE
p815
V0
sVDECAY
p816
NsVOBJECT_ID
p817
V1987-024B
p818
sVOBJECT_NAME
p819
VSL-14 R/B
p820
sVLAUNCH_NUM
p821
V24
p822
sVLAUNCH_PIECE
p823
VB
sVSATNAME
p824
VSL-14 R/B
p825
sVOBJECT_TYPE
p826
VROCKET BODY
p827
sVSITE
p828
VPKMTR
p829
sVPERIOD
p830
V97.06
p831
sVCURRENT
p832
VY
sVNORAD_CAT_ID
p833
V17567
p834
sVINCLINATION
p835
V82.53
p836
sVINTLDES
p837
V1987-024B
p838
sVPERIGEE
p839
V605
p840
sVLAUNCH
p841
V1987-03-03
p842
sVOBJECT_NUMBER
p843
V17567
p844
sVAPOGEE
p845
V630
p846
sasg49
V1 17567U 87024B   16348.17906451  .00000098  00000-0  89807-5 0  9996\u000a2 17567  82.5288  13.1177 0017903 237.3727 122.5761 14.83628642608880\u000a
p847
ssS'31789'
p848
(dp849
g4
(lp850
(dp851
VCOMMENTCODE
p852
NsVRCS_SIZE
p853
VLARGE
p854
sVCOUNTRY
p855
VUS
p856
sVLAUNCH_YEAR
p857
V2007
p858
sVFILE
p859
V6006
p860
sVCOMMENT
p861
NsVRCSVALUE
p862
V0
sVDECAY
p863
NsVOBJECT_ID
p864
V2007-028A
p865
sVOBJECT_NAME
p866
VGENESIS 2
p867
sVLAUNCH_NUM
p868
V28
p869
sVLAUNCH_PIECE
p870
VA
sVSATNAME
p871
VGENESIS 2
p872
sVOBJECT_TYPE
p873
VPAYLOAD
p874
sVSITE
p875
VOREN
p876
sVPERIOD
p877
V95.00
p878
sVCURRENT
p879
VY
sVNORAD_CAT_ID
p880
V31789
p881
sVINCLINATION
p882
V64.50
p883
sVINTLDES
p884
V2007-028A
p885
sVPERIGEE
p886
V487
p887
sVLAUNCH
p888
V2007-06-28
p889
sVOBJECT_NUMBER
p890
V31789
p891
sVAPOGEE
p892
V551
p893
sasg49
V1 31789U 07028A   16348.55524258  .00000630  00000-0  42842-4 0  9996\u000a2 31789  64.5033 208.9305 0046582 243.8517 115.7810 15.15729963520764\u000a
p894
ssS'15354'
p895
(dp896
g4
(lp897
(dp898
VCOMMENTCODE
p899
NsVRCS_SIZE
p900
VLARGE
p901
sVCOUNTRY
p902
VUS
p903
sVLAUNCH_YEAR
p904
V1984
p905
sVFILE
p906
V6003
p907
sVCOMMENT
p908
NsVRCSVALUE
p909
V0
sVDECAY
p910
NsVOBJECT_ID
p911
V1984-108B
p912
sVOBJECT_NAME
p913
VERBS
p914
sVLAUNCH_NUM
p915
V108
p916
sVLAUNCH_PIECE
p917
VB
sVSATNAME
p918
VERBS
p919
sVOBJECT_TYPE
p920
VPAYLOAD
p921
sVSITE
p922
VAFETR
p923
sVPERIOD
p924
V93.36
p925
sVCURRENT
p926
VY
sVNORAD_CAT_ID
p927
V15354
p928
sVINCLINATION
p929
V57.01
p930
sVINTLDES
p931
V1984-108B
p932
sVPERIGEE
p933
V427
p934
sVLAUNCH
p935
V1984-10-05
p936
sVOBJECT_NUMBER
p937
V15354
p938
sVAPOGEE
p939
V451
p940
sasg49
V1 15354U 84108B   16348.84627319  .00002272  00000-0  60765-4 0  9992\u000a2 15354  57.0076 215.5900 0016962 105.7385 254.5542 15.42387385769599\u000a
p941
ssS'21574'
p942
(dp943
g4
(lp944
(dp945
VCOMMENTCODE
p946
NsVRCS_SIZE
p947
VLARGE
p948
sVCOUNTRY
p949
VESA
p950
sVLAUNCH_YEAR
p951
V1991
p952
sVFILE
p953
V6008
p954
sVCOMMENT
p955
NsVRCSVALUE
p956
V0
sVDECAY
p957
NsVOBJECT_ID
p958
V1991-050A
p959
sVOBJECT_NAME
p960
VERS 1
p961
sVLAUNCH_NUM
p962
V50
p963
sVLAUNCH_PIECE
p964
VA
sVSATNAME
p965
VERS 1
p966
sVOBJECT_TYPE
p967
VPAYLOAD
p968
sVSITE
p969
VFRGUI
p970
sVPERIOD
p971
V100.17
p972
sVCURRENT
p973
VY
sVNORAD_CAT_ID
p974
V21574
p975
sVINCLINATION
p976
V98.44
p977
sVINTLDES
p978
V1991-050A
p979
sVPERIGEE
p980
V743
p981
sVLAUNCH
p982
V1991-07-17
p983
sVOBJECT_NUMBER
p984
V21574
p985
sVAPOGEE
p986
V791
p987
sasg49
V1 21574U 91050A   16347.87056264  .00000048  00000-0  30038-4 0  9993\u000a2 21574  98.4373 292.2257 0033488 149.7376 210.5754 14.37544500330820\u000a
p988
ssS'6155'
p989
(dp990
g4
(lp991
(dp992
VCOMMENTCODE
p993
NsVRCS_SIZE
p994
VLARGE
p995
sVCOUNTRY
p996
VUS
p997
sVLAUNCH_YEAR
p998
V1972
p999
sVFILE
p1000
V6006
p1001
sVCOMMENT
p1002
NsVRCSVALUE
p1003
V0
sVDECAY
p1004
NsVOBJECT_ID
p1005
V1972-065B
p1006
sVOBJECT_NAME
p1007
VATLAS CENTAUR R/B
p1008
sVLAUNCH_NUM
p1009
V65
p1010
sVLAUNCH_PIECE
p1011
VB
sVSATNAME
p1012
VATLAS CENTAUR R/B
p1013
sVOBJECT_TYPE
p1014
VROCKET BODY
p1015
sVSITE
p1016
VAFETR
p1017
sVPERIOD
p1018
V97.87
p1019
sVCURRENT
p1020
VY
sVNORAD_CAT_ID
p1021
V6155
p1022
sVINCLINATION
p1023
V35.00
p1024
sVINTLDES
p1025
V1972-065B
p1026
sVPERIGEE
p1027
V630
p1028
sVLAUNCH
p1029
V1972-08-21
p1030
sVOBJECT_NUMBER
p1031
V6155
p1032
sVAPOGEE
p1033
V684
p1034
sasg49
V1 06155U 72065B   16347.85318615  .00000112  00000-0  21256-4 0  9999\u000a2 06155  35.0034 123.9191 0038809 275.4790  84.1482 14.71280443364501\u000a
p1035
ssS'20511'
p1036
(dp1037
g4
(lp1038
(dp1039
VCOMMENTCODE
p1040
NsVRCS_SIZE
p1041
VLARGE
p1042
sVCOUNTRY
p1043
VCIS
p1044
sVLAUNCH_YEAR
p1045
V1990
p1046
sVFILE
p1047
V6006
p1048
sVCOMMENT
p1049
NsVRCSVALUE
p1050
V0
sVDECAY
p1051
NsVOBJECT_ID
p1052
V1990-018B
p1053
sVOBJECT_NAME
p1054
VSL-14 R/B
p1055
sVLAUNCH_NUM
p1056
V18
p1057
sVLAUNCH_PIECE
p1058
VB
sVSATNAME
p1059
VSL-14 R/B
p1060
sVOBJECT_TYPE
p1061
VROCKET BODY
p1062
sVSITE
p1063
VPKMTR
p1064
sVPERIOD
p1065
V97.30
p1066
sVCURRENT
p1067
VY
sVNORAD_CAT_ID
p1068
V20511
p1069
sVINCLINATION
p1070
V82.52
p1071
sVINTLDES
p1072
V1990-018B
p1073
sVPERIGEE
p1074
V617
p1075
sVLAUNCH
p1076
V1990-02-28
p1077
sVOBJECT_NUMBER
p1078
V20511
p1079
sVAPOGEE
p1080
V642
p1081
sasg49
V1 20511U 90018B   16348.51303873  .00000077  00000-0  71150-5 0  9992\u000a2 20511  82.5225 127.0210 0017584   7.0614  58.7000 14.79916913444609\u000a
p1082
ssS'10114'
p1083
(dp1084
g4
(lp1085
(dp1086
VCOMMENTCODE
p1087
NsVRCS_SIZE
p1088
VLARGE
p1089
sVCOUNTRY
p1090
VCIS
p1091
sVLAUNCH_YEAR
p1092
V1977
p1093
sVFILE
p1094
V5999
p1095
sVCOMMENT
p1096
NsVRCSVALUE
p1097
V0
sVDECAY
p1098
NsVOBJECT_ID
p1099
V1977-057B
p1100
sVOBJECT_NAME
p1101
VSL-3 R/B
p1102
sVLAUNCH_NUM
p1103
V57
p1104
sVLAUNCH_PIECE
p1105
VB
sVSATNAME
p1106
VSL-3 R/B
p1107
sVOBJECT_TYPE
p1108
VROCKET BODY
p1109
sVSITE
p1110
VTTMTR
p1111
sVPERIOD
p1112
V94.95
p1113
sVCURRENT
p1114
VY
sVNORAD_CAT_ID
p1115
V10114
p1116
sVINCLINATION
p1117
V97.20
p1118
sVINTLDES
p1119
V1977-057B
p1120
sVPERIGEE
p1121
V508
p1122
sVLAUNCH
p1123
V1977-06-29
p1124
sVOBJECT_NUMBER
p1125
V10114
p1126
sVAPOGEE
p1127
V525
p1128
sasg49
V1 10114U 77057B   16348.55259184  .00000428  00000-0  25140-4 0  9994\u000a2 10114  97.1962 174.2331 0012551 245.4994 114.4932 15.16534615155412\u000a
p1129
ssS'11574'
p1130
(dp1131
g4
(lp1132
(dp1133
VCOMMENTCODE
p1134
NsVRCS_SIZE
p1135
VLARGE
p1136
sVCOUNTRY
p1137
VCIS
p1138
sVLAUNCH_YEAR
p1139
V1979
p1140
sVFILE
p1141
V6006
p1142
sVCOMMENT
p1143
NsVRCSVALUE
p1144
V0
sVDECAY
p1145
NsVOBJECT_ID
p1146
V1979-089B
p1147
sVOBJECT_NAME
p1148
VSL-8 R/B
p1149
sVLAUNCH_NUM
p1150
V89
p1151
sVLAUNCH_PIECE
p1152
VB
sVSATNAME
p1153
VSL-8 R/B
p1154
sVOBJECT_TYPE
p1155
VROCKET BODY
p1156
sVSITE
p1157
VPKMTR
p1158
sVPERIOD
p1159
V99.96
p1160
sVCURRENT
p1161
VY
sVNORAD_CAT_ID
p1162
V11574
p1163
sVINCLINATION
p1164
V74.07
p1165
sVINTLDES
p1166
V1979-089B
p1167
sVPERIGEE
p1168
V745
p1169
sVLAUNCH
p1170
V1979-10-11
p1171
sVOBJECT_NUMBER
p1172
V11574
p1173
sVAPOGEE
p1174
V768
p1175
sasg49
V1 11574U 79089B   16348.78952590  .00000103  00000-0  40390-4 0  9992\u000a2 11574  74.0683 201.2511 0015499 157.0221 203.1631 14.40606109950445\u000a
p1176
ssS'23561'
p1177
(dp1178
g4
(lp1179
(dp1180
VCOMMENTCODE
p1181
NsVRCS_SIZE
p1182
VLARGE
p1183
sVCOUNTRY
p1184
VFR
p1185
sVLAUNCH_YEAR
p1186
V1995
p1187
sVFILE
p1188
V6006
p1189
sVCOMMENT
p1190
NsVRCSVALUE
p1191
V0
sVDECAY
p1192
NsVOBJECT_ID
p1193
V1995-021B
p1194
sVOBJECT_NAME
p1195
VARIANE 40+ R/B
p1196
sVLAUNCH_NUM
p1197
V21
p1198
sVLAUNCH_PIECE
p1199
VB
sVSATNAME
p1200
VARIANE 40+ R/B
p1201
sVOBJECT_TYPE
p1202
VROCKET BODY
p1203
sVSITE
p1204
VFRGUI
p1205
sVPERIOD
p1206
V100.15
p1207
sVCURRENT
p1208
VY
sVNORAD_CAT_ID
p1209
V23561
p1210
sVINCLINATION
p1211
V98.78
p1212
sVINTLDES
p1213
V1995-021B
p1214
sVPERIGEE
p1215
V760
p1216
sVLAUNCH
p1217
V1995-04-21
p1218
sVOBJECT_NUMBER
p1219
V23561
p1220
sVAPOGEE
p1221
V772
p1222
sasg49
V1 23561U 95021B   16348.88020823  .00000041  00000-0  28951-4 0  9991\u000a2 23561  98.7843 339.8879 0008015  87.4852 331.8991 14.37784748134626\u000a
p1223
ssS'17912'
p1224
(dp1225
g4
(lp1226
(dp1227
VCOMMENTCODE
p1228
NsVRCS_SIZE
p1229
VLARGE
p1230
sVCOUNTRY
p1231
VCIS
p1232
sVLAUNCH_YEAR
p1233
V1987
p1234
sVFILE
p1235
V6006
p1236
sVCOMMENT
p1237
NsVRCSVALUE
p1238
V0
sVDECAY
p1239
NsVOBJECT_ID
p1240
V1987-038B
p1241
sVOBJECT_NAME
p1242
VSL-14 R/B
p1243
sVLAUNCH_NUM
p1244
V38
p1245
sVLAUNCH_PIECE
p1246
VB
sVSATNAME
p1247
VSL-14 R/B
p1248
sVOBJECT_TYPE
p1249
VROCKET BODY
p1250
sVSITE
p1251
VPKMTR
p1252
sVPERIOD
p1253
V97.11
p1254
sVCURRENT
p1255
VY
sVNORAD_CAT_ID
p1256
V17912
p1257
sVINCLINATION
p1258
V82.50
p1259
sVINTLDES
p1260
V1987-038B
p1261
sVPERIGEE
p1262
V605
p1263
sVLAUNCH
p1264
V1987-04-27
p1265
sVOBJECT_NUMBER
p1266
V17912
p1267
sVAPOGEE
p1268
V635
p1269
sasg49
V1 17912U 87038B   16348.26706057  .00000102  00000-0  95032-5 0  9998\u000a2 17912  82.5028 224.8000 0021572 120.6454 239.6891 14.82906123600170\u000a
p1270
ssS'10967'
p1271
(dp1272
g4
(lp1273
(dp1274
VCOMMENTCODE
p1275
NsVRCS_SIZE
p1276
VLARGE
p1277
sVCOUNTRY
p1278
VUS
p1279
sVLAUNCH_YEAR
p1280
V1978
p1281
sVFILE
p1282
V5995
p1283
sVCOMMENT
p1284
NsVRCSVALUE
p1285
V0
sVDECAY
p1286
NsVOBJECT_ID
p1287
V1978-064A
p1288
sVOBJECT_NAME
p1289
VSEASAT 1
p1290
sVLAUNCH_NUM
p1291
V64
p1292
sVLAUNCH_PIECE
p1293
VA
sVSATNAME
p1294
VSEASAT 1
p1295
sVOBJECT_TYPE
p1296
VPAYLOAD
p1297
sVSITE
p1298
VAFWTR
p1299
sVPERIOD
p1300
V99.75
p1301
sVCURRENT
p1302
VY
sVNORAD_CAT_ID
p1303
V10967
p1304
sVINCLINATION
p1305
V108.00
p1306
sVINTLDES
p1307
V1978-064A
p1308
sVPERIGEE
p1309
V745
p1310
sVLAUNCH
p1311
V1978-06-27
p1312
sVOBJECT_NUMBER
p1313
V10967
p1314
sVAPOGEE
p1315
V748
p1316
sasg49
V1 10967U 78064A   16347.86310194 +.00000001 +00000-0 +40540-4 0  9999\u000a2 10967 108.0035 270.0999 0002229 256.4399 103.6497 14.43605359019483\u000a
p1317
ssS'11672'
p1318
(dp1319
g4
(lp1320
(dp1321
VCOMMENTCODE
p1322
NsVRCS_SIZE
p1323
VLARGE
p1324
sVCOUNTRY
p1325
VCIS
p1326
sVLAUNCH_YEAR
p1327
V1980
p1328
sVFILE
p1329
V6003
p1330
sVCOMMENT
p1331
NsVRCSVALUE
p1332
V0
sVDECAY
p1333
NsVOBJECT_ID
p1334
V1980-005B
p1335
sVOBJECT_NAME
p1336
VSL-14 R/B
p1337
sVLAUNCH_NUM
p1338
V5
sVLAUNCH_PIECE
p1339
VB
sVSATNAME
p1340
VSL-14 R/B
p1341
sVOBJECT_TYPE
p1342
VROCKET BODY
p1343
sVSITE
p1344
VPKMTR
p1345
sVPERIOD
p1346
V96.78
p1347
sVCURRENT
p1348
VY
sVNORAD_CAT_ID
p1349
V11672
p1350
sVINCLINATION
p1351
V82.52
p1352
sVINTLDES
p1353
V1980-005B
p1354
sVPERIGEE
p1355
V594
p1356
sVLAUNCH
p1357
V1980-01-23
p1358
sVOBJECT_NUMBER
p1359
V11672
p1360
sVAPOGEE
p1361
V616
p1362
sasg49
V1 11672U 80005B   16348.15900736  .00000103  00000-0  85541-5 0  9995\u000a2 11672  82.5169 254.9452 0015868 210.2753 149.7549 14.87835632995738\u000a
p1363
ssS'13154'
p1364
(dp1365
g4
(lp1366
(dp1367
VCOMMENTCODE
p1368
NsVRCS_SIZE
p1369
VLARGE
p1370
sVCOUNTRY
p1371
VCIS
p1372
sVLAUNCH_YEAR
p1373
V1982
p1374
sVFILE
p1375
V6008
p1376
sVCOMMENT
p1377
NsVRCSVALUE
p1378
V0
sVDECAY
p1379
NsVOBJECT_ID
p1380
V1982-039B
p1381
sVOBJECT_NAME
p1382
VSL-3 R/B
p1383
sVLAUNCH_NUM
p1384
V39
p1385
sVLAUNCH_PIECE
p1386
VB
sVSATNAME
p1387
VSL-3 R/B
p1388
sVOBJECT_TYPE
p1389
VROCKET BODY
p1390
sVSITE
p1391
VPKMTR
p1392
sVPERIOD
p1393
V96.11
p1394
sVCURRENT
p1395
VY
sVNORAD_CAT_ID
p1396
V13154
p1397
sVINCLINATION
p1398
V81.18
p1399
sVINTLDES
p1400
V1982-039B
p1401
sVPERIGEE
p1402
V544
p1403
sVLAUNCH
p1404
V1982-05-05
p1405
sVOBJECT_NUMBER
p1406
V13154
p1407
sVAPOGEE
p1408
V601
p1409
sasg49
V1 13154U 82039B   16348.49148029  .00000319  00000-0  24586-4 0  9997\u000a2 13154  81.1850  80.0919 0040614 174.5977 185.5689 14.98211137875932\u000a
p1410
ssS'25544'
p1411
(dp1412
g4
(lp1413
(dp1414
VCOMMENTCODE
p1415
NsVRCS_SIZE
p1416
VLARGE
p1417
sVCOUNTRY
p1418
VISS
p1419
sVLAUNCH_YEAR
p1420
V1998
p1421
sVFILE
p1422
V6007
p1423
sVCOMMENT
p1424
NsVRCSVALUE
p1425
V0
sVDECAY
p1426
NsVOBJECT_ID
p1427
V1998-067A
p1428
sVOBJECT_NAME
p1429
VISS (ZARYA)
p1430
sVLAUNCH_NUM
p1431
V67
p1432
sVLAUNCH_PIECE
p1433
VA
sVSATNAME
p1434
VISS (ZARYA)
p1435
sVOBJECT_TYPE
p1436
VPAYLOAD
p1437
sVSITE
p1438
VTTMTR
p1439
sVPERIOD
p1440
V92.67
p1441
sVCURRENT
p1442
VY
sVNORAD_CAT_ID
p1443
V25544
p1444
sVINCLINATION
p1445
V51.64
p1446
sVINTLDES
p1447
V1998-067A
p1448
sVPERIGEE
p1449
V401
p1450
sVLAUNCH
p1451
V1998-11-20
p1452
sVOBJECT_NUMBER
p1453
V25544
p1454
sVAPOGEE
p1455
V409
p1456
sasg49
V1 25544U 98067A   16348.99482630  .00003501  00000-0  60630-4 0  9991\u000a2 25544  51.6449 241.4697 0005976 330.3851 158.0119 15.53885833 32957\u000a
p1457
ssS'28738'
p1458
(dp1459
g4
(lp1460
(dp1461
VCOMMENTCODE
p1462
NsVRCS_SIZE
p1463
VLARGE
p1464
sVCOUNTRY
p1465
VPRC
p1466
sVLAUNCH_YEAR
p1467
V2005
p1468
sVFILE
p1469
V5996
p1470
sVCOMMENT
p1471
NsVRCSVALUE
p1472
V0
sVDECAY
p1473
NsVOBJECT_ID
p1474
V2005-024B
p1475
sVOBJECT_NAME
p1476
VCZ-2D R/B
p1477
sVLAUNCH_NUM
p1478
V24
p1479
sVLAUNCH_PIECE
p1480
VB
sVSATNAME
p1481
VCZ-2D R/B
p1482
sVOBJECT_TYPE
p1483
VROCKET BODY
p1484
sVSITE
p1485
VJSC
p1486
sVPERIOD
p1487
V95.31
p1488
sVCURRENT
p1489
VY
sVNORAD_CAT_ID
p1490
V28738
p1491
sVINCLINATION
p1492
V97.52
p1493
sVINTLDES
p1494
V2005-024B
p1495
sVPERIGEE
p1496
V526
p1497
sVLAUNCH
p1498
V2005-07-05
p1499
sVOBJECT_NUMBER
p1500
V28738
p1501
sVAPOGEE
p1502
V541
p1503
sasg49
V1 28738U 05024B   16348.71170093  .00000663  00000-0  43600-4 0  9991\u000a2 28738  97.5210  23.0022 0010734 284.6792  75.3248 15.10898510627806\u000a
p1504
ssS'19650'
p1505
(dp1506
g4
(lp1507
(dp1508
VCOMMENTCODE
p1509
NsVRCS_SIZE
p1510
VLARGE
p1511
sVCOUNTRY
p1512
VCIS
p1513
sVLAUNCH_YEAR
p1514
V1988
p1515
sVFILE
p1516
V6006
p1517
sVCOMMENT
p1518
NsVRCSVALUE
p1519
V0
sVDECAY
p1520
NsVOBJECT_ID
p1521
V1988-102B
p1522
sVOBJECT_NAME
p1523
VSL-16 R/B
p1524
sVLAUNCH_NUM
p1525
V102
p1526
sVLAUNCH_PIECE
p1527
VB
sVSATNAME
p1528
VSL-16 R/B
p1529
sVOBJECT_TYPE
p1530
VROCKET BODY
p1531
sVSITE
p1532
VTTMTR
p1533
sVPERIOD
p1534
V101.71
p1535
sVCURRENT
p1536
VY
sVNORAD_CAT_ID
p1537
V19650
p1538
sVINCLINATION
p1539
V71.00
p1540
sVINTLDES
p1541
V1988-102B
p1542
sVPERIGEE
p1543
V831
p1544
sVLAUNCH
p1545
V1988-11-23
p1546
sVOBJECT_NUMBER
p1547
V19650
p1548
sVAPOGEE
p1549
V848
p1550
sasg49
V1 19650U 88102B   16348.18672134 -.00000060  00000-0 -61184-5 0  9997\u000a2 19650  71.0009  46.2025 0011930 108.9030 251.3388 14.15753146449660\u000a
p1551
ssS'39271'
p1552
(dp1553
g4
(lp1554
(dp1555
VCOMMENTCODE
p1556
NsVRCS_SIZE
p1557
VLARGE
p1558
sVCOUNTRY
p1559
VUS
p1560
sVLAUNCH_YEAR
p1561
V2013
p1562
sVFILE
p1563
V6007
p1564
sVCOMMENT
p1565
NsVRCSVALUE
p1566
V0
sVDECAY
p1567
NsVOBJECT_ID
p1568
V2013-055G
p1569
sVOBJECT_NAME
p1570
VCUSAT 2/FALCON 9
p1571
sVLAUNCH_NUM
p1572
V55
p1573
sVLAUNCH_PIECE
p1574
VG
sVSATNAME
p1575
VCUSAT 2/FALCON 9
p1576
sVOBJECT_TYPE
p1577
VPAYLOAD
p1578
sVSITE
p1579
VAFWTR
p1580
sVPERIOD
p1581
V100.38
p1582
sVCURRENT
p1583
VY
sVNORAD_CAT_ID
p1584
V39271
p1585
sVINCLINATION
p1586
V80.97
p1587
sVINTLDES
p1588
V2013-055G
p1589
sVPERIGEE
p1590
V315
p1591
sVLAUNCH
p1592
V2013-09-29
p1593
sVOBJECT_NUMBER
p1594
V39271
p1595
sVAPOGEE
p1596
V1238
p1597
sasg49
V1 39271U 13055G   16348.11908191  .00005689  00000-0  14791-3 0  9991\u000a2 39271  80.9676 193.5409 0644734  31.6360 332.1933 14.34501422165921\u000a
p1598
ssS'28222'
p1599
(dp1600
g4
(lp1601
(dp1602
VCOMMENTCODE
p1603
NsVRCS_SIZE
p1604
VLARGE
p1605
sVCOUNTRY
p1606
VPRC
p1607
sVLAUNCH_YEAR
p1608
V2004
p1609
sVFILE
p1610
V6006
p1611
sVCOMMENT
p1612
NsVRCSVALUE
p1613
V0
sVDECAY
p1614
NsVOBJECT_ID
p1615
V2004-012C
p1616
sVOBJECT_NAME
p1617
VCZ-2C R/B
p1618
sVLAUNCH_NUM
p1619
V12
p1620
sVLAUNCH_PIECE
p1621
VC
sVSATNAME
p1622
VCZ-2C R/B
p1623
sVOBJECT_TYPE
p1624
VROCKET BODY
p1625
sVSITE
p1626
VXSC
p1627
sVPERIOD
p1628
V95.43
p1629
sVCURRENT
p1630
VY
sVNORAD_CAT_ID
p1631
V28222
p1632
sVINCLINATION
p1633
V97.50
p1634
sVINTLDES
p1635
V2004-012C
p1636
sVPERIGEE
p1637
V505
p1638
sVLAUNCH
p1639
V2004-04-18
p1640
sVOBJECT_NUMBER
p1641
V28222
p1642
sVAPOGEE
p1643
V574
p1644
sasg49
V1 28222U 04012C   16348.53118610  .00000727  00000-0  48764-4 0  9999\u000a2 28222  97.4998 302.8632 0050320 101.9338  32.6776 15.08922721692615\u000a
p1645
ssS'28939'
p1646
(dp1647
g4
(lp1648
(dp1649
VCOMMENTCODE
p1650
NsVRCS_SIZE
p1651
VLARGE
p1652
sVCOUNTRY
p1653
VJPN
p1654
sVLAUNCH_YEAR
p1655
V2006
p1656
sVFILE
p1657
V6006
p1658
sVCOMMENT
p1659
NsVRCSVALUE
p1660
V0
sVDECAY
p1661
NsVOBJECT_ID
p1662
V2006-005A
p1663
sVOBJECT_NAME
p1664
VASTRO F (AKARI)
p1665
sVLAUNCH_NUM
p1666
V5
sVLAUNCH_PIECE
p1667
VA
sVSATNAME
p1668
VASTRO F (AKARI)
p1669
sVOBJECT_TYPE
p1670
VPAYLOAD
p1671
sVSITE
p1672
VKSCUT
p1673
sVPERIOD
p1674
V94.28
p1675
sVCURRENT
p1676
VY
sVNORAD_CAT_ID
p1677
V28939
p1678
sVINCLINATION
p1679
V98.25
p1680
sVINTLDES
p1681
V2006-005A
p1682
sVPERIGEE
p1683
V407
p1684
sVLAUNCH
p1685
V2006-02-21
p1686
sVOBJECT_NUMBER
p1687
V28939
p1688
sVAPOGEE
p1689
V560
p1690
sasg49
V1 28939U 06005A   16348.13062803  .00002368  00000-0  76791-4 0  9990\u000a2 28939  98.2525 163.3284 0111162 110.7893 250.5295 15.27404607584700\u000a
p1691
ssS'22566'
p1692
(dp1693
g4
(lp1694
(dp1695
VCOMMENTCODE
p1696
NsVRCS_SIZE
p1697
VLARGE
p1698
sVCOUNTRY
p1699
VCIS
p1700
sVLAUNCH_YEAR
p1701
V1993
p1702
sVFILE
p1703
V6003
p1704
sVCOMMENT
p1705
NsVRCSVALUE
p1706
V0
sVDECAY
p1707
NsVOBJECT_ID
p1708
V1993-016B
p1709
sVOBJECT_NAME
p1710
VSL-16 R/B
p1711
sVLAUNCH_NUM
p1712
V16
p1713
sVLAUNCH_PIECE
p1714
VB
sVSATNAME
p1715
VSL-16 R/B
p1716
sVOBJECT_TYPE
p1717
VROCKET BODY
p1718
sVSITE
p1719
VTTMTR
p1720
sVPERIOD
p1721
V101.77
p1722
sVCURRENT
p1723
VY
sVNORAD_CAT_ID
p1724
V22566
p1725
sVINCLINATION
p1726
V71.01
p1727
sVINTLDES
p1728
V1993-016B
p1729
sVPERIGEE
p1730
V836
p1731
sVLAUNCH
p1732
V1993-03-26
p1733
sVOBJECT_NUMBER
p1734
V22566
p1735
sVAPOGEE
p1736
V849
p1737
sasg49
V1 22566U 93016B   16347.85415724 +.00000244 +00000-0 +15074-3 0  9997\u000a2 22566 071.0079 098.0480 0008589 049.4852 310.7017 14.14940264224909\u000a
p1738
ssS'28932'
p1739
(dp1740
g4
(lp1741
(dp1742
VCOMMENTCODE
p1743
NsVRCS_SIZE
p1744
VLARGE
p1745
sVCOUNTRY
p1746
VJPN
p1747
sVLAUNCH_YEAR
p1748
V2006
p1749
sVFILE
p1750
V6006
p1751
sVCOMMENT
p1752
NsVRCSVALUE
p1753
V0
sVDECAY
p1754
NsVOBJECT_ID
p1755
V2006-002B
p1756
sVOBJECT_NAME
p1757
VH-2A R/B
p1758
sVLAUNCH_NUM
p1759
V2
sVLAUNCH_PIECE
p1760
VB
sVSATNAME
p1761
VH-2A R/B
p1762
sVOBJECT_TYPE
p1763
VROCKET BODY
p1764
sVSITE
p1765
VTNSTA
p1766
sVPERIOD
p1767
V96.57
p1768
sVCURRENT
p1769
VY
sVNORAD_CAT_ID
p1770
V28932
p1771
sVINCLINATION
p1772
V98.21
p1773
sVINTLDES
p1774
V2006-002B
p1775
sVPERIGEE
p1776
V532
p1777
sVLAUNCH
p1778
V2006-01-24
p1779
sVOBJECT_NUMBER
p1780
V28932
p1781
sVAPOGEE
p1782
V657
p1783
sasg49
V1 28932U 06002B   16348.82625541  .00000271  00000-0  31726-4 0  9990\u000a2 28932  98.2072 258.2738 0089798 198.0501 203.0646 14.91176403590184\u000a
p1784
ssS'28931'
p1785
(dp1786
g4
(lp1787
(dp1788
VCOMMENTCODE
p1789
NsVRCS_SIZE
p1790
VLARGE
p1791
sVCOUNTRY
p1792
VJPN
p1793
sVLAUNCH_YEAR
p1794
V2006
p1795
sVFILE
p1796
V6006
p1797
sVCOMMENT
p1798
NsVRCSVALUE
p1799
V0
sVDECAY
p1800
NsVOBJECT_ID
p1801
V2006-002A
p1802
sVOBJECT_NAME
p1803
VALOS
p1804
sVLAUNCH_NUM
p1805
V2
sVLAUNCH_PIECE
p1806
VA
sVSATNAME
p1807
VALOS
p1808
sVOBJECT_TYPE
p1809
VPAYLOAD
p1810
sVSITE
p1811
VTNSTA
p1812
sVPERIOD
p1813
V98.48
p1814
sVCURRENT
p1815
VY
sVNORAD_CAT_ID
p1816
V28931
p1817
sVINCLINATION
p1818
V97.86
p1819
sVINTLDES
p1820
V2006-002A
p1821
sVPERIGEE
p1822
V685
p1823
sVLAUNCH
p1824
V2006-01-24
p1825
sVOBJECT_NUMBER
p1826
V28931
p1827
sVAPOGEE
p1828
V687
p1829
sasg49
V1 28931U 06002A   16348.56868715  .00000318  00000-0  71823-4 0  9996\u000a2 28931  97.8644  19.0222 0001557 125.7642 234.3705 14.62289331580336\u000a
p1830
ssS'12904'
p1831
(dp1832
g4
(lp1833
(dp1834
VCOMMENTCODE
p1835
NsVRCS_SIZE
p1836
VLARGE
p1837
sVCOUNTRY
p1838
VCIS
p1839
sVLAUNCH_YEAR
p1840
V1981
p1841
sVFILE
p1842
V6006
p1843
sVCOMMENT
p1844
NsVRCSVALUE
p1845
V0
sVDECAY
p1846
NsVOBJECT_ID
p1847
V1981-103B
p1848
sVOBJECT_NAME
p1849
VSL-3 R/B
p1850
sVLAUNCH_NUM
p1851
V103
p1852
sVLAUNCH_PIECE
p1853
VB
sVSATNAME
p1854
VSL-3 R/B
p1855
sVOBJECT_TYPE
p1856
VROCKET BODY
p1857
sVSITE
p1858
VPKMTR
p1859
sVPERIOD
p1860
V95.67
p1861
sVCURRENT
p1862
VY
sVNORAD_CAT_ID
p1863
V12904
p1864
sVINCLINATION
p1865
V81.18
p1866
sVINTLDES
p1867
V1981-103B
p1868
sVPERIGEE
p1869
V532
p1870
sVLAUNCH
p1871
V1981-10-13
p1872
sVOBJECT_NUMBER
p1873
V12904
p1874
sVAPOGEE
p1875
V570
p1876
sasg49
V1 12904U 81103B   16348.51019875 -.00000076  00000-0 -69070-5 0  9999\u000a2 12904  81.1767 127.6017 0027581 317.8453  42.0647 15.05138566464890\u000a
p1877
ssS'4327'
p1878
(dp1879
g4
(lp1880
(dp1881
VCOMMENTCODE
p1882
NsVRCS_SIZE
p1883
VLARGE
p1884
sVCOUNTRY
p1885
VUS
p1886
sVLAUNCH_YEAR
p1887
V1970
p1888
sVFILE
p1889
V6003
p1890
sVCOMMENT
p1891
NsVRCSVALUE
p1892
V0
sVDECAY
p1893
NsVOBJECT_ID
p1894
V1970-009A
p1895
sVOBJECT_NAME
p1896
VSERT 2
p1897
sVLAUNCH_NUM
p1898
V9
sVLAUNCH_PIECE
p1899
VA
sVSATNAME
p1900
VSERT 2
p1901
sVOBJECT_TYPE
p1902
VPAYLOAD
p1903
sVSITE
p1904
VAFWTR
p1905
sVPERIOD
p1906
V106.00
p1907
sVCURRENT
p1908
VY
sVNORAD_CAT_ID
p1909
V4327
p1910
sVINCLINATION
p1911
V99.31
p1912
sVINTLDES
p1913
V1970-009A
p1914
sVPERIGEE
p1915
V1037
p1916
sVLAUNCH
p1917
V1970-02-04
p1918
sVOBJECT_NUMBER
p1919
V4327
p1920
sVAPOGEE
p1921
V1045
p1922
sasg49
V1  4327U 70009A   16347.87650898 -.00000004 +00000-0 +50909-4 0  9996\u000a2  4327 099.3110 085.2268 0005367 149.6069 357.3907 13.58452202321785\u000a
p1923
ssS'20775'
p1924
(dp1925
g4
(lp1926
(dp1927
VCOMMENTCODE
p1928
NsVRCS_SIZE
p1929
VLARGE
p1930
sVCOUNTRY
p1931
VCIS
p1932
sVLAUNCH_YEAR
p1933
V1990
p1934
sVFILE
p1935
V6006
p1936
sVCOMMENT
p1937
NsVRCSVALUE
p1938
V0
sVDECAY
p1939
NsVOBJECT_ID
p1940
V1990-078B
p1941
sVOBJECT_NAME
p1942
VSL-8 R/B
p1943
sVLAUNCH_NUM
p1944
V78
p1945
sVLAUNCH_PIECE
p1946
VB
sVSATNAME
p1947
VSL-8 R/B
p1948
sVOBJECT_TYPE
p1949
VROCKET BODY
p1950
sVSITE
p1951
VPKMTR
p1952
sVPERIOD
p1953
V100.72
p1954
sVCURRENT
p1955
VY
sVNORAD_CAT_ID
p1956
V20775
p1957
sVINCLINATION
p1958
V82.93
p1959
sVINTLDES
p1960
V1990-078B
p1961
sVPERIGEE
p1962
V368
p1963
sVLAUNCH
p1964
V1990-08-28
p1965
sVOBJECT_NUMBER
p1966
V20775
p1967
sVAPOGEE
p1968
V1217
p1969
sasg49
V1 20775U 90078B   16348.06471528  .00002172  00000-0  10831-3 0  9998\u000a2 20775  82.9290 200.6341 0592128 195.0550 163.2338 14.29755734322168\u000a
p1970
ssS'14208'
p1971
(dp1972
g4
(lp1973
(dp1974
VCOMMENTCODE
p1975
NsVRCS_SIZE
p1976
VLARGE
p1977
sVCOUNTRY
p1978
VCIS
p1979
sVLAUNCH_YEAR
p1980
V1983
p1981
sVFILE
p1982
V6006
p1983
sVCOMMENT
p1984
NsVRCSVALUE
p1985
V0
sVDECAY
p1986
NsVOBJECT_ID
p1987
V1983-075B
p1988
sVOBJECT_NAME
p1989
VSL-3 R/B
p1990
sVLAUNCH_NUM
p1991
V75
p1992
sVLAUNCH_PIECE
p1993
VB
sVSATNAME
p1994
VSL-3 R/B
p1995
sVOBJECT_TYPE
p1996
VROCKET BODY
p1997
sVSITE
p1998
VTTMTR
p1999
sVPERIOD
p2000
V95.35
p2001
sVCURRENT
p2002
VY
sVNORAD_CAT_ID
p2003
V14208
p2004
sVINCLINATION
p2005
V97.35
p2006
sVINTLDES
p2007
V1983-075B
p2008
sVPERIGEE
p2009
V507
p2010
sVLAUNCH
p2011
V1983-07-24
p2012
sVOBJECT_NUMBER
p2013
V14208
p2014
sVAPOGEE
p2015
V564
p2016
sasg49
V1 14208U 83075B   16347.92800770 +.00000534 +00000-0 +35863-4 0  9993\u000a2 14208 097.3463 000.1173 0040990 055.2079 305.2997 15.10200754819098\u000a
p2017
ssS'27432'
p2018
(dp2019
g4
(lp2020
(dp2021
VCOMMENTCODE
p2022
NsVRCS_SIZE
p2023
VLARGE
p2024
sVCOUNTRY
p2025
VPRC
p2026
sVLAUNCH_YEAR
p2027
V2002
p2028
sVFILE
p2029
V6006
p2030
sVCOMMENT
p2031
NsVRCSVALUE
p2032
V0
sVDECAY
p2033
NsVOBJECT_ID
p2034
V2002-024C
p2035
sVOBJECT_NAME
p2036
VCZ-4B R/B
p2037
sVLAUNCH_NUM
p2038
V24
p2039
sVLAUNCH_PIECE
p2040
VC
sVSATNAME
p2041
VCZ-4B R/B
p2042
sVOBJECT_TYPE
p2043
VROCKET BODY
p2044
sVSITE
p2045
VTSC
p2046
sVPERIOD
p2047
V101.84
p2048
sVCURRENT
p2049
VY
sVNORAD_CAT_ID
p2050
V27432
p2051
sVINCLINATION
p2052
V98.96
p2053
sVINTLDES
p2054
V2002-024C
p2055
sVPERIGEE
p2056
V809
p2057
sVLAUNCH
p2058
V2002-05-15
p2059
sVOBJECT_NUMBER
p2060
V27432
p2061
sVAPOGEE
p2062
V882
p2063
sasg49
V1 27432U 02024C   16347.93411286 -.00000023 +00000-0 +11721-4 0  9993\u000a2 27432 098.9624 314.6959 0050099 198.4755 225.5873 14.14031821752390\u000a
p2064
ssS'27601'
p2065
(dp2066
g4
(lp2067
(dp2068
VCOMMENTCODE
p2069
NsVRCS_SIZE
p2070
VLARGE
p2071
sVCOUNTRY
p2072
VJPN
p2073
sVLAUNCH_YEAR
p2074
V2002
p2075
sVFILE
p2076
V6007
p2077
sVCOMMENT
p2078
NsVRCSVALUE
p2079
V0
sVDECAY
p2080
NsVOBJECT_ID
p2081
V2002-056E
p2082
sVOBJECT_NAME
p2083
VH-2A R/B
p2084
sVLAUNCH_NUM
p2085
V56
p2086
sVLAUNCH_PIECE
p2087
VE
sVSATNAME
p2088
VH-2A R/B
p2089
sVOBJECT_TYPE
p2090
VROCKET BODY
p2091
sVSITE
p2092
VTNSTA
p2093
sVPERIOD
p2094
V100.58
p2095
sVCURRENT
p2096
VY
sVNORAD_CAT_ID
p2097
V27601
p2098
sVINCLINATION
p2099
V98.40
p2100
sVINTLDES
p2101
V2002-056E
p2102
sVPERIGEE
p2103
V733
p2104
sVLAUNCH
p2105
V2002-12-14
p2106
sVOBJECT_NUMBER
p2107
V27601
p2108
sVAPOGEE
p2109
V838
p2110
sasg49
V1 27601U 02056E   16348.80062442  .00000041  00000-0  29975-4 0  9998\u000a2 27601  98.4010  56.7909 0073209 124.6312 344.0790 14.31752861731282\u000a
p2111
ssS'37820'
p2112
(dp2113
g4
(lp2114
(dp2115
VCOMMENTCODE
p2116
NsVRCS_SIZE
p2117
VLARGE
p2118
sVCOUNTRY
p2119
VPRC
p2120
sVLAUNCH_YEAR
p2121
V2011
p2122
sVFILE
p2123
V6007
p2124
sVCOMMENT
p2125
NsVRCSVALUE
p2126
V0
sVDECAY
p2127
NsVOBJECT_ID
p2128
V2011-053A
p2129
sVOBJECT_NAME
p2130
VTIANGONG 1
p2131
sVLAUNCH_NUM
p2132
V53
p2133
sVLAUNCH_PIECE
p2134
VA
sVSATNAME
p2135
VTIANGONG 1
p2136
sVOBJECT_TYPE
p2137
VPAYLOAD
p2138
sVSITE
p2139
VJSC
p2140
sVPERIOD
p2141
V91.71
p2142
sVCURRENT
p2143
VY
sVNORAD_CAT_ID
p2144
V37820
p2145
sVINCLINATION
p2146
V42.76
p2147
sVINTLDES
p2148
V2011-053A
p2149
sVPERIGEE
p2150
V347
p2151
sVLAUNCH
p2152
V2011-09-29
p2153
sVOBJECT_NUMBER
p2154
V37820
p2155
sVAPOGEE
p2156
V370
p2157
sasg49
V1 37820U 11053A   16348.82467941  .00020381  00000-0  16488-3 0  9997\u000a2 37820  42.7624 247.5853 0017497 215.1792 219.1073 15.70198974298751\u000a
p2158
ssS'12585'
p2159
(dp2160
g4
(lp2161
(dp2162
VCOMMENTCODE
p2163
NsVRCS_SIZE
p2164
VLARGE
p2165
sVCOUNTRY
p2166
VCIS
p2167
sVLAUNCH_YEAR
p2168
V1981
p2169
sVFILE
p2170
V6006
p2171
sVCOMMENT
p2172
NsVRCSVALUE
p2173
V0
sVDECAY
p2174
NsVOBJECT_ID
p2175
V1981-065A
p2176
sVOBJECT_NAME
p2177
VMETEOR PRIRODA
p2178
sVLAUNCH_NUM
p2179
V65
p2180
sVLAUNCH_PIECE
p2181
VA
sVSATNAME
p2182
VMETEOR PRIRODA
p2183
sVOBJECT_TYPE
p2184
VPAYLOAD
p2185
sVSITE
p2186
VTTMTR
p2187
sVPERIOD
p2188
V94.74
p2189
sVCURRENT
p2190
VY
sVNORAD_CAT_ID
p2191
V12585
p2192
sVINCLINATION
p2193
V97.41
p2194
sVINTLDES
p2195
V1981-065A
p2196
sVPERIGEE
p2197
V496
p2198
sVLAUNCH
p2199
V1981-07-10
p2200
sVOBJECT_NUMBER
p2201
V12585
p2202
sVAPOGEE
p2203
V516
p2204
sasg49
V1 12585U 81065A   16348.47713485  .00000826  00000-0  41495-4 0  9995\u000a2 12585  97.4094 324.7658 0014216 335.4972  24.5586 15.19973079934050\u000a
p2205
ssS'27386'
p2206
(dp2207
g4
(lp2208
(dp2209
VCOMMENTCODE
p2210
NsVRCS_SIZE
p2211
VLARGE
p2212
sVCOUNTRY
p2213
VESA
p2214
sVLAUNCH_YEAR
p2215
V2002
p2216
sVFILE
p2217
V6006
p2218
sVCOMMENT
p2219
NsVRCSVALUE
p2220
V0
sVDECAY
p2221
NsVOBJECT_ID
p2222
V2002-009A
p2223
sVOBJECT_NAME
p2224
VENVISAT
p2225
sVLAUNCH_NUM
p2226
V9
sVLAUNCH_PIECE
p2227
VA
sVSATNAME
p2228
VENVISAT
p2229
sVOBJECT_TYPE
p2230
VPAYLOAD
p2231
sVSITE
p2232
VFRGUI
p2233
sVPERIOD
p2234
V100.15
p2235
sVCURRENT
p2236
VY
sVNORAD_CAT_ID
p2237
V27386
p2238
sVINCLINATION
p2239
V98.26
p2240
sVINTLDES
p2241
V2002-009A
p2242
sVPERIGEE
p2243
V765
p2244
sVLAUNCH
p2245
V2002-03-01
p2246
sVOBJECT_NUMBER
p2247
V27386
p2248
sVAPOGEE
p2249
V766
p2250
sasg49
V1 27386U 02009A   16348.79854024 -.00000016  00000-0  85230-5 0  9999\u000a2 27386  98.2597  35.5545 0001173  82.2914 277.8405 14.37883683774432\u000a
p2251
ssS'5560'
p2252
(dp2253
g4
(lp2254
(dp2255
VCOMMENTCODE
p2256
NsVRCS_SIZE
p2257
VLARGE
p2258
sVCOUNTRY
p2259
VUS
p2260
sVLAUNCH_YEAR
p2261
V1971
p2262
sVFILE
p2263
V6003
p2264
sVCOMMENT
p2265
NsVRCSVALUE
p2266
V0
sVDECAY
p2267
NsVOBJECT_ID
p2268
V1971-089A
p2269
sVOBJECT_NAME
p2270
VASTEX 1
p2271
sVLAUNCH_NUM
p2272
V89
p2273
sVLAUNCH_PIECE
p2274
VA
sVSATNAME
p2275
VASTEX 1
p2276
sVOBJECT_TYPE
p2277
VPAYLOAD
p2278
sVSITE
p2279
VAFWTR
p2280
sVPERIOD
p2281
V99.46
p2282
sVCURRENT
p2283
VY
sVNORAD_CAT_ID
p2284
V5560
p2285
sVINCLINATION
p2286
V92.71
p2287
sVINTLDES
p2288
V1971-089A
p2289
sVPERIGEE
p2290
V723
p2291
sVLAUNCH
p2292
V1971-10-17
p2293
sVOBJECT_NUMBER
p2294
V5560
p2295
sVAPOGEE
p2296
V743
p2297
sasg49
V1 05560U 71089A   16348.79793761  .00000093  00000-0  25416-4 0  9996\u000a2 05560  92.7091 144.0082 0013924 282.7133  77.2515 14.47857206374308\u000a
p2298
ssS'19574'
p2299
(dp2300
g4
(lp2301
(dp2302
VCOMMENTCODE
p2303
NsVRCS_SIZE
p2304
VLARGE
p2305
sVCOUNTRY
p2306
VCIS
p2307
sVLAUNCH_YEAR
p2308
V1988
p2309
sVFILE
p2310
V6006
p2311
sVCOMMENT
p2312
NsVRCSVALUE
p2313
V0
sVDECAY
p2314
NsVOBJECT_ID
p2315
V1988-093B
p2316
sVOBJECT_NAME
p2317
VSL-14 R/B
p2318
sVLAUNCH_NUM
p2319
V93
p2320
sVLAUNCH_PIECE
p2321
VB
sVSATNAME
p2322
VSL-14 R/B
p2323
sVOBJECT_TYPE
p2324
VROCKET BODY
p2325
sVSITE
p2326
VPKMTR
p2327
sVPERIOD
p2328
V97.09
p2329
sVCURRENT
p2330
VY
sVNORAD_CAT_ID
p2331
V19574
p2332
sVINCLINATION
p2333
V82.53
p2334
sVINTLDES
p2335
V1988-093B
p2336
sVPERIGEE
p2337
V604
p2338
sVLAUNCH
p2339
V1988-10-11
p2340
sVOBJECT_NUMBER
p2341
V19574
p2342
sVAPOGEE
p2343
V635
p2344
sasg49
V1 19574U 88093B   16348.88308212  .00000087  00000-0  77126-5 0  9991\u000a2 19574  82.5312 318.3034 0021972  11.7650  48.2759 14.83193832521984\u000a
p2345
ssS'19573'
p2346
(dp2347
g4
(lp2348
(dp2349
VCOMMENTCODE
p2350
NsVRCS_SIZE
p2351
VLARGE
p2352
sVCOUNTRY
p2353
VCIS
p2354
sVLAUNCH_YEAR
p2355
V1988
p2356
sVFILE
p2357
V6006
p2358
sVCOMMENT
p2359
NsVRCSVALUE
p2360
V0
sVDECAY
p2361
NsVOBJECT_ID
p2362
V1988-093A
p2363
sVOBJECT_NAME
p2364
VCOSMOS 1975
p2365
sVLAUNCH_NUM
p2366
V93
p2367
sVLAUNCH_PIECE
p2368
VA
sVSATNAME
p2369
VCOSMOS 1975
p2370
sVOBJECT_TYPE
p2371
VPAYLOAD
p2372
sVSITE
p2373
VPKMTR
p2374
sVPERIOD
p2375
V95.75
p2376
sVCURRENT
p2377
VY
sVNORAD_CAT_ID
p2378
V19573
p2379
sVINCLINATION
p2380
V82.52
p2381
sVINTLDES
p2382
V1988-093A
p2383
sVPERIGEE
p2384
V545
p2385
sVLAUNCH
p2386
V1988-10-11
p2387
sVOBJECT_NUMBER
p2388
V19573
p2389
sVAPOGEE
p2390
V564
p2391
sasg49
V1 19573U 88093A   16348.05954281  .00000572  00000-0  39274-4 0  9992\u000a2 19573  82.5193 165.5342 0013845 208.1931 151.8548 15.03982345531838\u000a
p2392
ssS'18187'
p2393
(dp2394
g4
(lp2395
(dp2396
VCOMMENTCODE
p2397
NsVRCS_SIZE
p2398
VLARGE
p2399
sVCOUNTRY
p2400
VCIS
p2401
sVLAUNCH_YEAR
p2402
V1987
p2403
sVFILE
p2404
V5999
p2405
sVCOMMENT
p2406
NsVRCSVALUE
p2407
V0
sVDECAY
p2408
NsVOBJECT_ID
p2409
V1987-060A
p2410
sVOBJECT_NAME
p2411
VCOSMOS 1867
p2412
sVLAUNCH_NUM
p2413
V60
p2414
sVLAUNCH_PIECE
p2415
VA
sVSATNAME
p2416
VCOSMOS 1867
p2417
sVOBJECT_TYPE
p2418
VPAYLOAD
p2419
sVSITE
p2420
VTTMTR
p2421
sVPERIOD
p2422
V100.62
p2423
sVCURRENT
p2424
VY
sVNORAD_CAT_ID
p2425
V18187
p2426
sVINCLINATION
p2427
V65.01
p2428
sVINTLDES
p2429
V1987-060A
p2430
sVPERIGEE
p2431
V775
p2432
sVLAUNCH
p2433
V1987-07-10
p2434
sVOBJECT_NUMBER
p2435
V18187
p2436
sVAPOGEE
p2437
V801
p2438
sasg49
V1 18187U 87060A   16348.48506985 -.00000085  00000-0  58998-5 0  9991\u000a2 18187  65.0113  28.5089 0018331 258.4772 101.4254 14.31079991537428\u000a
p2439
ssS'25723'
p2440
(dp2441
g4
(lp2442
(dp2443
VCOMMENTCODE
p2444
NsVRCS_SIZE
p2445
VLARGE
p2446
sVCOUNTRY
p2447
VCIS
p2448
sVLAUNCH_YEAR
p2449
V1999
p2450
sVFILE
p2451
V6008
p2452
sVCOMMENT
p2453
NsVRCSVALUE
p2454
V0
sVDECAY
p2455
NsVOBJECT_ID
p2456
V1999-022C
p2457
sVOBJECT_NAME
p2458
VSL-8 R/B
p2459
sVLAUNCH_NUM
p2460
V22
p2461
sVLAUNCH_PIECE
p2462
VC
sVSATNAME
p2463
VSL-8 R/B
p2464
sVOBJECT_TYPE
p2465
VROCKET BODY
p2466
sVSITE
p2467
VKYMTR
p2468
sVPERIOD
p2469
V92.81
p2470
sVCURRENT
p2471
VY
sVNORAD_CAT_ID
p2472
V25723
p2473
sVINCLINATION
p2474
V48.42
p2475
sVINTLDES
p2476
V1999-022C
p2477
sVPERIGEE
p2478
V405
p2479
sVLAUNCH
p2480
V1999-04-28
p2481
sVOBJECT_NUMBER
p2482
V25723
p2483
sVAPOGEE
p2484
V420
p2485
sasg49
V1 25723U 99022C   16348.72437771  .00005389  00000-0  96495-4 0  9993\u000a2 25723  48.4183  74.3324 0011399 228.1573 131.8398 15.51493786977671\u000a
p2486
ssS'6153'
p2487
(dp2488
g4
(lp2489
(dp2490
VCOMMENTCODE
p2491
NsVRCS_SIZE
p2492
VLARGE
p2493
sVCOUNTRY
p2494
VUS
p2495
sVLAUNCH_YEAR
p2496
V1972
p2497
sVFILE
p2498
V6006
p2499
sVCOMMENT
p2500
NsVRCSVALUE
p2501
V0
sVDECAY
p2502
NsVOBJECT_ID
p2503
V1972-065A
p2504
sVOBJECT_NAME
p2505
VOAO 3 (COPERNICUS)
p2506
sVLAUNCH_NUM
p2507
V65
p2508
sVLAUNCH_PIECE
p2509
VA
sVSATNAME
p2510
VOAO 3 (COPERNICUS)
p2511
sVOBJECT_TYPE
p2512
VPAYLOAD
p2513
sVSITE
p2514
VAFETR
p2515
sVPERIOD
p2516
V98.78
p2517
sVCURRENT
p2518
VY
sVNORAD_CAT_ID
p2519
V6153
p2520
sVINCLINATION
p2521
V35.01
p2522
sVINTLDES
p2523
V1972-065A
p2524
sVPERIGEE
p2525
V695
p2526
sVLAUNCH
p2527
V1972-08-21
p2528
sVOBJECT_NUMBER
p2529
V6153
p2530
sVAPOGEE
p2531
V705
p2532
sasg49
V1 06153U 72065A   16348.51374520  .00000042  00000-0  13554-4 0  9992\u000a2 06153  35.0084  24.7688 0006978 351.1644 155.4108 14.57811553353775\u000a
p2533
ssS'15483'
p2534
(dp2535
g4
(lp2536
(dp2537
VCOMMENTCODE
p2538
NsVRCS_SIZE
p2539
VLARGE
p2540
sVCOUNTRY
p2541
VCIS
p2542
sVLAUNCH_YEAR
p2543
V1985
p2544
sVFILE
p2545
V6003
p2546
sVCOMMENT
p2547
NsVRCSVALUE
p2548
V0
sVDECAY
p2549
NsVOBJECT_ID
p2550
V1985-006B
p2551
sVOBJECT_NAME
p2552
VSL-8 R/B
p2553
sVLAUNCH_NUM
p2554
V6
sVLAUNCH_PIECE
p2555
VB
sVSATNAME
p2556
VSL-8 R/B
p2557
sVOBJECT_TYPE
p2558
VROCKET BODY
p2559
sVSITE
p2560
VPKMTR
p2561
sVPERIOD
p2562
V100.27
p2563
sVCURRENT
p2564
VY
sVNORAD_CAT_ID
p2565
V15483
p2566
sVINCLINATION
p2567
V74.05
p2568
sVINTLDES
p2569
V1985-006B
p2570
sVPERIGEE
p2571
V758
p2572
sVLAUNCH
p2573
V1985-01-17
p2574
sVOBJECT_NUMBER
p2575
V15483
p2576
sVAPOGEE
p2577
V785
p2578
sasg49
V1 15483U 85006B   16348.19358060  .00000067  00000-0  31947-4 0  9995\u000a2 15483  74.0455 336.5917 0018817 359.1996  80.9070 14.36154496669850\u000a
p2579
ssS'25732'
p2580
(dp2581
g4
(lp2582
(dp2583
VCOMMENTCODE
p2584
NsVRCS_SIZE
p2585
VLARGE
p2586
sVCOUNTRY
p2587
VPRC
p2588
sVLAUNCH_YEAR
p2589
V1999
p2590
sVFILE
p2591
V6006
p2592
sVCOMMENT
p2593
NsVRCSVALUE
p2594
V0
sVDECAY
p2595
NsVOBJECT_ID
p2596
V1999-025C
p2597
sVOBJECT_NAME
p2598
VCZ-4B R/B
p2599
sVLAUNCH_NUM
p2600
V25
p2601
sVLAUNCH_PIECE
p2602
VC
sVSATNAME
p2603
VCZ-4B R/B
p2604
sVOBJECT_TYPE
p2605
VROCKET BODY
p2606
sVSITE
p2607
VTSC
p2608
sVPERIOD
p2609
V101.58
p2610
sVCURRENT
p2611
VY
sVNORAD_CAT_ID
p2612
V25732
p2613
sVINCLINATION
p2614
V98.98
p2615
sVINTLDES
p2616
V1999-025C
p2617
sVPERIGEE
p2618
V807
p2619
sVLAUNCH
p2620
V1999-05-10
p2621
sVOBJECT_NUMBER
p2622
V25732
p2623
sVAPOGEE
p2624
V860
p2625
sasg49
V1 25732U 99025C   16348.83785714 -.00000024  00000-0  10688-4 0  9993\u000a2 25732  98.9844 342.4094 0036394 258.6903 163.6692 14.17622375910378\u000a
p2626
ssS'20625'
p2627
(dp2628
g4
(lp2629
(dp2630
VCOMMENTCODE
p2631
NsVRCS_SIZE
p2632
VLARGE
p2633
sVCOUNTRY
p2634
VCIS
p2635
sVLAUNCH_YEAR
p2636
V1990
p2637
sVFILE
p2638
V6006
p2639
sVCOMMENT
p2640
NsVRCSVALUE
p2641
V0
sVDECAY
p2642
NsVOBJECT_ID
p2643
V1990-046B
p2644
sVOBJECT_NAME
p2645
VSL-16 R/B
p2646
sVLAUNCH_NUM
p2647
V46
p2648
sVLAUNCH_PIECE
p2649
VB
sVSATNAME
p2650
VSL-16 R/B
p2651
sVOBJECT_TYPE
p2652
VROCKET BODY
p2653
sVSITE
p2654
VTTMTR
p2655
sVPERIOD
p2656
V101.80
p2657
sVCURRENT
p2658
VY
sVNORAD_CAT_ID
p2659
V20625
p2660
sVINCLINATION
p2661
V71.00
p2662
sVINTLDES
p2663
V1990-046B
p2664
sVPERIGEE
p2665
V834
p2666
sVLAUNCH
p2667
V1990-05-22
p2668
sVOBJECT_NUMBER
p2669
V20625
p2670
sVAPOGEE
p2671
V853
p2672
sasg49
V1 20625U 90046B   16348.51882262 -.00000028  00000-0  99933-5 0  9999\u000a2 20625  70.9966 178.8160 0013266  21.3897 338.7777 14.14604797371582\u000a
p2673
ssS'31792'
p2674
(dp2675
g4
(lp2676
(dp2677
VCOMMENTCODE
p2678
NsVRCS_SIZE
p2679
VLARGE
p2680
sVCOUNTRY
p2681
VCIS
p2682
sVLAUNCH_YEAR
p2683
V2007
p2684
sVFILE
p2685
V6009
p2686
sVCOMMENT
p2687
NsVRCSVALUE
p2688
V0
sVDECAY
p2689
NsVOBJECT_ID
p2690
V2007-029A
p2691
sVOBJECT_NAME
p2692
VCOSMOS 2428
p2693
sVLAUNCH_NUM
p2694
V29
p2695
sVLAUNCH_PIECE
p2696
VA
sVSATNAME
p2697
VCOSMOS 2428
p2698
sVOBJECT_TYPE
p2699
VPAYLOAD
p2700
sVSITE
p2701
VTTMTR
p2702
sVPERIOD
p2703
V101.96
p2704
sVCURRENT
p2705
VY
sVNORAD_CAT_ID
p2706
V31792
p2707
sVINCLINATION
p2708
V70.92
p2709
sVINTLDES
p2710
V2007-029A
p2711
sVPERIGEE
p2712
V845
p2713
sVLAUNCH
p2714
V2007-06-29
p2715
sVOBJECT_NUMBER
p2716
V31792
p2717
sVAPOGEE
p2718
V858
p2719
sasg49
V1 31792U 07029A   16348.84315514 -.00000232  00000-0 -99940-4 0  9997\u000a2 31792  70.9194  81.2570 0009509 215.3460 144.7031 14.12274058487903\u000a
p2720
ssS'3669'
p2721
(dp2722
g4
(lp2723
(dp2724
VCOMMENTCODE
p2725
NsVRCS_SIZE
p2726
VLARGE
p2727
sVCOUNTRY
p2728
VCA
p2729
sVLAUNCH_YEAR
p2730
V1969
p2731
sVFILE
p2732
V6004
p2733
sVCOMMENT
p2734
NsVRCSVALUE
p2735
V0
sVDECAY
p2736
NsVOBJECT_ID
p2737
V1969-009A
p2738
sVOBJECT_NAME
p2739
VISIS 1
p2740
sVLAUNCH_NUM
p2741
V9
sVLAUNCH_PIECE
p2742
VA
sVSATNAME
p2743
VISIS 1
p2744
sVOBJECT_TYPE
p2745
VPAYLOAD
p2746
sVSITE
p2747
VAFWTR
p2748
sVPERIOD
p2749
V127.50
p2750
sVCURRENT
p2751
VY
sVNORAD_CAT_ID
p2752
V3669
p2753
sVINCLINATION
p2754
V88.44
p2755
sVINTLDES
p2756
V1969-009A
p2757
sVPERIGEE
p2758
V576
p2759
sVLAUNCH
p2760
V1969-01-30
p2761
sVOBJECT_NUMBER
p2762
V3669
p2763
sVAPOGEE
p2764
V3450
p2765
sasg49
V1 03669U 69009A   16348.50820804  .00000059  00000-0  27910-4 0  9994\u000a2 03669  88.4377 168.7209 1712765  50.6060 323.4548 11.29423701968004\u000a
p2766
ssS'22220'
p2767
(dp2768
g4
(lp2769
(dp2770
VCOMMENTCODE
p2771
NsVRCS_SIZE
p2772
VLARGE
p2773
sVCOUNTRY
p2774
VCIS
p2775
sVLAUNCH_YEAR
p2776
V1992
p2777
sVFILE
p2778
V6007
p2779
sVCOMMENT
p2780
NsVRCSVALUE
p2781
V0
sVDECAY
p2782
NsVOBJECT_ID
p2783
V1992-076B
p2784
sVOBJECT_NAME
p2785
VSL-16 R/B
p2786
sVLAUNCH_NUM
p2787
V76
p2788
sVLAUNCH_PIECE
p2789
VB
sVSATNAME
p2790
VSL-16 R/B
p2791
sVOBJECT_TYPE
p2792
VROCKET BODY
p2793
sVSITE
p2794
VTTMTR
p2795
sVPERIOD
p2796
V101.67
p2797
sVCURRENT
p2798
VY
sVNORAD_CAT_ID
p2799
V22220
p2800
sVINCLINATION
p2801
V71.00
p2802
sVINTLDES
p2803
V1992-076B
p2804
sVPERIGEE
p2805
V828
p2806
sVLAUNCH
p2807
V1992-11-17
p2808
sVOBJECT_NUMBER
p2809
V22220
p2810
sVAPOGEE
p2811
V847
p2812
sasg49
V1 22220U 92076B   16347.89845052 -.00000241 +00000-0 -97139-4 0  9996\u000a2 22220 071.0010 091.3754 0013750 206.7874 291.6557 14.16408780244068\u000a
p2813
ssS'24883'
p2814
(dp2815
g4
(lp2816
(dp2817
VCOMMENTCODE
p2818
NsVRCS_SIZE
p2819
VLARGE
p2820
sVCOUNTRY
p2821
VUS
p2822
sVLAUNCH_YEAR
p2823
V1997
p2824
sVFILE
p2825
V6009
p2826
sVCOMMENT
p2827
NsVRCSVALUE
p2828
V0
sVDECAY
p2829
NsVOBJECT_ID
p2830
V1997-037A
p2831
sVOBJECT_NAME
p2832
VORBVIEW 2 (SEASTAR)
p2833
sVLAUNCH_NUM
p2834
V37
p2835
sVLAUNCH_PIECE
p2836
VA
sVSATNAME
p2837
VORBVIEW 2 (SEASTAR)
p2838
sVOBJECT_TYPE
p2839
VPAYLOAD
p2840
sVSITE
p2841
VWRAS
p2842
sVPERIOD
p2843
V100.46
p2844
sVCURRENT
p2845
VY
sVNORAD_CAT_ID
p2846
V24883
p2847
sVINCLINATION
p2848
V98.53
p2849
sVINTLDES
p2850
V1997-037A
p2851
sVPERIGEE
p2852
V780
p2853
sVLAUNCH
p2854
V1997-08-01
p2855
sVOBJECT_NUMBER
p2856
V24883
p2857
sVAPOGEE
p2858
V781
p2859
sasg49
V1 24883U 97037A   16348.22591642  .00000042  00000-0  30939-4 0  9998\u000a2 24883  98.5326  93.4883 0001350 314.2415  45.8658 14.33359986 25266\u000a
p2860
ssS'27422'
p2861
(dp2862
g4
(lp2863
(dp2864
VCOMMENTCODE
p2865
NsVRCS_SIZE
p2866
VLARGE
p2867
sVCOUNTRY
p2868
VFR
p2869
sVLAUNCH_YEAR
p2870
V2002
p2871
sVFILE
p2872
V6006
p2873
sVCOMMENT
p2874
NsVRCSVALUE
p2875
V0
sVDECAY
p2876
NsVOBJECT_ID
p2877
V2002-021B
p2878
sVOBJECT_NAME
p2879
VIDEFIX/ARIANE 42P
p2880
sVLAUNCH_NUM
p2881
V21
p2882
sVLAUNCH_PIECE
p2883
VB
sVSATNAME
p2884
VIDEFIX/ARIANE 42P
p2885
sVOBJECT_TYPE
p2886
VPAYLOAD
p2887
sVSITE
p2888
VFRGUI
p2889
sVPERIOD
p2890
V100.75
p2891
sVCURRENT
p2892
VY
sVNORAD_CAT_ID
p2893
V27422
p2894
sVINCLINATION
p2895
V98.23
p2896
sVINTLDES
p2897
V2002-021B
p2898
sVPERIGEE
p2899
V785
p2900
sVLAUNCH
p2901
V2002-05-04
p2902
sVOBJECT_NUMBER
p2903
V27422
p2904
sVAPOGEE
p2905
V804
p2906
sasg49
V1 27422U 02021B   16347.94098674 -.00000027 +00000-0 +52592-5 0  9998\u000a2 27422 098.2274 352.5547 0013419 070.8201 289.4433 14.29253123761962\u000a
p2907
ssS'27424'
p2908
(dp2909
g4
(lp2910
(dp2911
VCOMMENTCODE
p2912
NsVRCS_SIZE
p2913
VLARGE
p2914
sVCOUNTRY
p2915
VUS
p2916
sVLAUNCH_YEAR
p2917
V2002
p2918
sVFILE
p2919
V6007
p2920
sVCOMMENT
p2921
NsVRCSVALUE
p2922
V0
sVDECAY
p2923
NsVOBJECT_ID
p2924
V2002-022A
p2925
sVOBJECT_NAME
p2926
VAQUA
p2927
sVLAUNCH_NUM
p2928
V22
p2929
sVLAUNCH_PIECE
p2930
VA
sVSATNAME
p2931
VAQUA
p2932
sVOBJECT_TYPE
p2933
VPAYLOAD
p2934
sVSITE
p2935
VAFWTR
p2936
sVPERIOD
p2937
V98.83
p2938
sVCURRENT
p2939
VY
sVNORAD_CAT_ID
p2940
V27424
p2941
sVINCLINATION
p2942
V98.22
p2943
sVINTLDES
p2944
V2002-022A
p2945
sVPERIGEE
p2946
V702
p2947
sVLAUNCH
p2948
V2002-05-04
p2949
sVOBJECT_NUMBER
p2950
V27424
p2951
sVAPOGEE
p2952
V703
p2953
sasg49
V1 27424U 02022A   16348.22467573  .00000126  00000-0  38003-4 0  9990\u000a2 27424  98.2184 286.1326 0001325  37.3480 101.4103 14.57115615777194\u000a
p2954
ssS'23705'
p2955
(dp2956
g4
(lp2957
(dp2958
VCOMMENTCODE
p2959
NsVRCS_SIZE
p2960
VLARGE
p2961
sVCOUNTRY
p2962
VCIS
p2963
sVLAUNCH_YEAR
p2964
V1995
p2965
sVFILE
p2966
V6003
p2967
sVCOMMENT
p2968
NsVRCSVALUE
p2969
V0
sVDECAY
p2970
NsVOBJECT_ID
p2971
V1995-058B
p2972
sVOBJECT_NAME
p2973
VSL-16 R/B
p2974
sVLAUNCH_NUM
p2975
V58
p2976
sVLAUNCH_PIECE
p2977
VB
sVSATNAME
p2978
VSL-16 R/B
p2979
sVOBJECT_TYPE
p2980
VROCKET BODY
p2981
sVSITE
p2982
VTTMTR
p2983
sVPERIOD
p2984
V101.76
p2985
sVCURRENT
p2986
VY
sVNORAD_CAT_ID
p2987
V23705
p2988
sVINCLINATION
p2989
V71.02
p2990
sVINTLDES
p2991
V1995-058B
p2992
sVPERIGEE
p2993
V832
p2994
sVLAUNCH
p2995
V1995-10-31
p2996
sVOBJECT_NUMBER
p2997
V23705
p2998
sVAPOGEE
p2999
V852
p3000
sasg49
V1 23705U 95058B   16348.18881116 -.00000082  00000-0 -17690-4 0  9999\u000a2 23705  71.0226  59.2689 0014236 228.3955 131.5949 14.15090565 90878\u000a
p3001
ssS'21610'
p3002
(dp3003
g4
(lp3004
(dp3005
VCOMMENTCODE
p3006
NsVRCS_SIZE
p3007
VLARGE
p3008
sVCOUNTRY
p3009
VFR
p3010
sVLAUNCH_YEAR
p3011
V1991
p3012
sVFILE
p3013
V5999
p3014
sVCOMMENT
p3015
NsVRCSVALUE
p3016
V0
sVDECAY
p3017
NsVOBJECT_ID
p3018
V1991-050F
p3019
sVOBJECT_NAME
p3020
VARIANE 40 R/B
p3021
sVLAUNCH_NUM
p3022
V50
p3023
sVLAUNCH_PIECE
p3024
VF
sVSATNAME
p3025
VARIANE 40 R/B
p3026
sVOBJECT_TYPE
p3027
VROCKET BODY
p3028
sVSITE
p3029
VFRGUI
p3030
sVPERIOD
p3031
V99.95
p3032
sVCURRENT
p3033
VY
sVNORAD_CAT_ID
p3034
V21610
p3035
sVINCLINATION
p3036
V98.63
p3037
sVINTLDES
p3038
V1991-050F
p3039
sVPERIGEE
p3040
V753
p3041
sVLAUNCH
p3042
V1991-07-17
p3043
sVOBJECT_NUMBER
p3044
V21610
p3045
sVAPOGEE
p3046
V759
p3047
sasg49
V1 21610U 91050F   16348.12616322  .00000030  00000-0  23505-4 0  9992\u000a2 21610  98.6329  37.2857 0004077 129.3890 283.6224 14.40775678333321\u000a
p3048
ssS'8459'
p3049
(dp3050
g4
(lp3051
(dp3052
VCOMMENTCODE
p3053
NsVRCS_SIZE
p3054
VLARGE
p3055
sVCOUNTRY
p3056
VCIS
p3057
sVLAUNCH_YEAR
p3058
V1975
p3059
sVFILE
p3060
V6009
p3061
sVCOMMENT
p3062
NsVRCSVALUE
p3063
V0
sVDECAY
p3064
NsVOBJECT_ID
p3065
V1975-112B
p3066
sVOBJECT_NAME
p3067
VSL-8 R/B
p3068
sVLAUNCH_NUM
p3069
V112
p3070
sVLAUNCH_PIECE
p3071
VB
sVSATNAME
p3072
VSL-8 R/B
p3073
sVOBJECT_TYPE
p3074
VROCKET BODY
p3075
sVSITE
p3076
VPKMTR
p3077
sVPERIOD
p3078
V100.23
p3079
sVCURRENT
p3080
VY
sVNORAD_CAT_ID
p3081
V8459
p3082
sVINCLINATION
p3083
V74.06
p3084
sVINTLDES
p3085
V1975-112B
p3086
sVPERIGEE
p3087
V757
p3088
sVLAUNCH
p3089
V1975-11-28
p3090
sVOBJECT_NUMBER
p3091
V8459
p3092
sVAPOGEE
p3093
V782
p3094
sasg49
V1  8459U 75112B   16347.84584975 +.00000050 +00000-0 +25793-4 0  9998\u000a2  8459 074.0624 093.9228 0017078 308.2366 051.7250 14.36737456147216\u000a
p3095
ssS'29228'
p3096
(dp3097
g4
(lp3098
(dp3099
VCOMMENTCODE
p3100
NsVRCS_SIZE
p3101
VLARGE
p3102
sVCOUNTRY
p3103
VCIS
p3104
sVLAUNCH_YEAR
p3105
V2006
p3106
sVFILE
p3107
V6006
p3108
sVCOMMENT
p3109
NsVRCSVALUE
p3110
V0
sVDECAY
p3111
NsVOBJECT_ID
p3112
V2006-021A
p3113
sVOBJECT_NAME
p3114
VRESURS DK-1
p3115
sVLAUNCH_NUM
p3116
V21
p3117
sVLAUNCH_PIECE
p3118
VA
sVSATNAME
p3119
VRESURS DK-1
p3120
sVOBJECT_TYPE
p3121
VPAYLOAD
p3122
sVSITE
p3123
VTTMTR
p3124
sVPERIOD
p3125
V95.87
p3126
sVCURRENT
p3127
VY
sVNORAD_CAT_ID
p3128
V29228
p3129
sVINCLINATION
p3130
V69.93
p3131
sVINTLDES
p3132
V2006-021A
p3133
sVPERIGEE
p3134
V555
p3135
sVLAUNCH
p3136
V2006-06-15
p3137
sVOBJECT_NUMBER
p3138
V29228
p3139
sVAPOGEE
p3140
V566
p3141
sasg49
V1 29228U 06021A   16348.84922127  .00000153  00000-0  19054-4 0  9991\u000a2 29228  69.9347 209.5803 0007865 267.2542  92.7718 15.02059439580278\u000a
p3142
ssS'16792'
p3143
(dp3144
g4
(lp3145
(dp3146
VCOMMENTCODE
p3147
NsVRCS_SIZE
p3148
VLARGE
p3149
sVCOUNTRY
p3150
VCIS
p3151
sVLAUNCH_YEAR
p3152
V1986
p3153
sVFILE
p3154
V6009
p3155
sVCOMMENT
p3156
NsVRCSVALUE
p3157
V0
sVDECAY
p3158
NsVOBJECT_ID
p3159
V1986-046B
p3160
sVOBJECT_NAME
p3161
VSL-14 R/B
p3162
sVLAUNCH_NUM
p3163
V46
p3164
sVLAUNCH_PIECE
p3165
VB
sVSATNAME
p3166
VSL-14 R/B
p3167
sVOBJECT_TYPE
p3168
VROCKET BODY
p3169
sVSITE
p3170
VPKMTR
p3171
sVPERIOD
p3172
V97.09
p3173
sVCURRENT
p3174
VY
sVNORAD_CAT_ID
p3175
V16792
p3176
sVINCLINATION
p3177
V82.48
p3178
sVINTLDES
p3179
V1986-046B
p3180
sVPERIGEE
p3181
V603
p3182
sVLAUNCH
p3183
V1986-06-12
p3184
sVOBJECT_NUMBER
p3185
V16792
p3186
sVAPOGEE
p3187
V637
p3188
sasg49
V1 16792U 86046B   16348.66704735  .00000106  00000-0  10072-4 0  9990\u000a2 16792  82.4825  16.9699 0024259 180.3661 315.7553 14.83107350647382\u000a
p3189
ssS'4814'
p3190
(dp3191
g4
(lp3192
(dp3193
VCOMMENTCODE
p3194
NsVRCS_SIZE
p3195
VLARGE
p3196
sVCOUNTRY
p3197
VCIS
p3198
sVLAUNCH_YEAR
p3199
V1970
p3200
sVFILE
p3201
V6005
p3202
sVCOMMENT
p3203
NsVRCSVALUE
p3204
V0
sVDECAY
p3205
NsVOBJECT_ID
p3206
V1970-113B
p3207
sVOBJECT_NAME
p3208
VSL-3 R/B
p3209
sVLAUNCH_NUM
p3210
V113
p3211
sVLAUNCH_PIECE
p3212
VB
sVSATNAME
p3213
VSL-3 R/B
p3214
sVOBJECT_TYPE
p3215
VROCKET BODY
p3216
sVSITE
p3217
VPKMTR
p3218
sVPERIOD
p3219
V93.98
p3220
sVCURRENT
p3221
VY
sVNORAD_CAT_ID
p3222
V4814
p3223
sVINCLINATION
p3224
V81.14
p3225
sVINTLDES
p3226
V1970-113B
p3227
sVPERIGEE
p3228
V451
p3229
sVLAUNCH
p3230
V1970-12-18
p3231
sVOBJECT_NUMBER
p3232
V4814
p3233
sVAPOGEE
p3234
V488
p3235
sasg49
V1 04814U 70113B   16348.80796142  .00001675  00000-0  52397-4 0  9997\u000a2 04814  81.1446 252.0798 0027088 356.6403   3.4648 15.32178507506104\u000a
p3236
ssS'19046'
p3237
(dp3238
g4
(lp3239
(dp3240
VCOMMENTCODE
p3241
NsVRCS_SIZE
p3242
VLARGE
p3243
sVCOUNTRY
p3244
VCIS
p3245
sVLAUNCH_YEAR
p3246
V1988
p3247
sVFILE
p3248
V6006
p3249
sVCOMMENT
p3250
NsVRCSVALUE
p3251
V0
sVDECAY
p3252
NsVOBJECT_ID
p3253
V1988-032B
p3254
sVOBJECT_NAME
p3255
VSL-3 R/B
p3256
sVLAUNCH_NUM
p3257
V32
p3258
sVLAUNCH_PIECE
p3259
VB
sVSATNAME
p3260
VSL-3 R/B
p3261
sVOBJECT_TYPE
p3262
VROCKET BODY
p3263
sVSITE
p3264
VTTMTR
p3265
sVPERIOD
p3266
V95.87
p3267
sVCURRENT
p3268
VY
sVNORAD_CAT_ID
p3269
V19046
p3270
sVINCLINATION
p3271
V97.56
p3272
sVINTLDES
p3273
V1988-032B
p3274
sVPERIGEE
p3275
V533
p3276
sVLAUNCH
p3277
V1988-04-20
p3278
sVOBJECT_NUMBER
p3279
V19046
p3280
sVAPOGEE
p3281
V588
p3282
sasg49
V1 19046U 88032B   16348.21557138  .00000966  00000-0  76943-4 0  9999\u000a2 19046  97.5594  34.2183 0039766 240.8686 118.8556 15.02109731544722\u000a
p3283
ssS'17973'
p3284
(dp3285
g4
(lp3286
(dp3287
VCOMMENTCODE
p3288
NsVRCS_SIZE
p3289
VLARGE
p3290
sVCOUNTRY
p3291
VCIS
p3292
sVLAUNCH_YEAR
p3293
V1987
p3294
sVFILE
p3295
V6007
p3296
sVCOMMENT
p3297
NsVRCSVALUE
p3298
V0
sVDECAY
p3299
NsVOBJECT_ID
p3300
V1987-041A
p3301
sVOBJECT_NAME
p3302
VCOSMOS 1844
p3303
sVLAUNCH_NUM
p3304
V41
p3305
sVLAUNCH_PIECE
p3306
VA
sVSATNAME
p3307
VCOSMOS 1844
p3308
sVOBJECT_TYPE
p3309
VPAYLOAD
p3310
sVSITE
p3311
VTTMTR
p3312
sVPERIOD
p3313
V101.84
p3314
sVCURRENT
p3315
VY
sVNORAD_CAT_ID
p3316
V17973
p3317
sVINCLINATION
p3318
V70.90
p3319
sVINTLDES
p3320
V1987-041A
p3321
sVPERIGEE
p3322
V824
p3323
sVLAUNCH
p3324
V1987-05-13
p3325
sVOBJECT_NUMBER
p3326
V17973
p3327
sVAPOGEE
p3328
V867
p3329
sasg49
V1 17973U 87041A   16347.87352359 +.00000046 +00000-0 +49327-4 0  9999\u000a2 17973 070.8979 306.2285 0029314 042.4048 317.9331 14.14035775526609\u000a
p3330
ssS'20580'
p3331
(dp3332
g4
(lp3333
(dp3334
VCOMMENTCODE
p3335
NsVRCS_SIZE
p3336
VLARGE
p3337
sVCOUNTRY
p3338
VUS
p3339
sVLAUNCH_YEAR
p3340
V1990
p3341
sVFILE
p3342
V6006
p3343
sVCOMMENT
p3344
NsVRCSVALUE
p3345
V0
sVDECAY
p3346
NsVOBJECT_ID
p3347
V1990-037B
p3348
sVOBJECT_NAME
p3349
VHST
p3350
sVLAUNCH_NUM
p3351
V37
p3352
sVLAUNCH_PIECE
p3353
VB
sVSATNAME
p3354
VHST
p3355
sVOBJECT_TYPE
p3356
VPAYLOAD
p3357
sVSITE
p3358
VAFETR
p3359
sVPERIOD
p3360
V95.45
p3361
sVCURRENT
p3362
VY
sVNORAD_CAT_ID
p3363
V20580
p3364
sVINCLINATION
p3365
V28.47
p3366
sVINTLDES
p3367
V1990-037B
p3368
sVPERIGEE
p3369
V539
p3370
sVLAUNCH
p3371
V1990-04-24
p3372
sVOBJECT_NUMBER
p3373
V20580
p3374
sVAPOGEE
p3375
V542
p3376
sasg49
V1 20580U 90037B   16348.88747685  .00000517  00000-0  21031-4 0  9993\u000a2 20580  28.4688 151.8015 0002737 344.1347 250.0456 15.08619997262275\u000a
p3377
ssS'6073'
p3378
(dp3379
g4
(lp3380
(dp3381
VCOMMENTCODE
p3382
NsVRCS_SIZE
p3383
VMEDIUM
p3384
sVCOUNTRY
p3385
VCIS
p3386
sVLAUNCH_YEAR
p3387
V1972
p3388
sVFILE
p3389
V6008
p3390
sVCOMMENT
p3391
NsVRCSVALUE
p3392
V0
sVDECAY
p3393
NsVOBJECT_ID
p3394
V1972-023E
p3395
sVOBJECT_NAME
p3396
VCOSMOS 482 DESCENT CRAFT
p3397
sVLAUNCH_NUM
p3398
V23
p3399
sVLAUNCH_PIECE
p3400
VE
sVSATNAME
p3401
VCOSMOS 482 DESCENT CRAFT
p3402
sVOBJECT_TYPE
p3403
VPAYLOAD
p3404
sVSITE
p3405
VTTMTR
p3406
sVPERIOD
p3407
V114.64
p3408
sVCURRENT
p3409
VY
sVNORAD_CAT_ID
p3410
V6073
p3411
sVINCLINATION
p3412
V52.07
p3413
sVINTLDES
p3414
V1972-023E
p3415
sVPERIGEE
p3416
V203
p3417
sVLAUNCH
p3418
V1972-03-31
p3419
sVOBJECT_NUMBER
p3420
V6073
p3421
sVAPOGEE
p3422
V2675
p3423
sasg49
V1 06073U 72023E   16348.88204114  .00013763  46746-5  71108-4 0  9993\u000a2 06073  52.0687 326.6749 1581023 232.6136 112.0277 12.56108575337694\u000a
p3424
ssS'28499'
p3425
(dp3426
g4
(lp3427
(dp3428
VCOMMENTCODE
p3429
NsVRCS_SIZE
p3430
VLARGE
p3431
sVCOUNTRY
p3432
VFR
p3433
sVLAUNCH_YEAR
p3434
V2004
p3435
sVFILE
p3436
V6006
p3437
sVCOMMENT
p3438
NsVRCSVALUE
p3439
V0
sVDECAY
p3440
NsVOBJECT_ID
p3441
V2004-049H
p3442
sVOBJECT_NAME
p3443
VARIANE 5 R/B
p3444
sVLAUNCH_NUM
p3445
V49
p3446
sVLAUNCH_PIECE
p3447
VH
sVSATNAME
p3448
VARIANE 5 R/B
p3449
sVOBJECT_TYPE
p3450
VROCKET BODY
p3451
sVSITE
p3452
VFRGUI
p3453
sVPERIOD
p3454
V97.31
p3455
sVCURRENT
p3456
VY
sVNORAD_CAT_ID
p3457
V28499
p3458
sVINCLINATION
p3459
V98.10
p3460
sVINTLDES
p3461
V2004-049H
p3462
sVPERIGEE
p3463
V564
p3464
sVLAUNCH
p3465
V2004-12-18
p3466
sVOBJECT_NUMBER
p3467
V28499
p3468
sVAPOGEE
p3469
V696
p3470
sasg49
V1 28499U 04049H   16347.84166995  .00000071  00000-0  16134-4 0  9995\u000a2 28499  98.0954  63.6498 0093880  97.1827  19.5511 14.79768270646433\u000a
p3471
ssS'18749'
p3472
(dp3473
g4
(lp3474
(dp3475
VCOMMENTCODE
p3476
NsVRCS_SIZE
p3477
VLARGE
p3478
sVCOUNTRY
p3479
VCIS
p3480
sVLAUNCH_YEAR
p3481
V1988
p3482
sVFILE
p3483
V6006
p3484
sVCOMMENT
p3485
NsVRCSVALUE
p3486
V0
sVDECAY
p3487
NsVOBJECT_ID
p3488
V1988-001B
p3489
sVOBJECT_NAME
p3490
VSL-14 R/B
p3491
sVLAUNCH_NUM
p3492
V1
sVLAUNCH_PIECE
p3493
VB
sVSATNAME
p3494
VSL-14 R/B
p3495
sVOBJECT_TYPE
p3496
VROCKET BODY
p3497
sVSITE
p3498
VPKMTR
p3499
sVPERIOD
p3500
V97.09
p3501
sVCURRENT
p3502
VY
sVNORAD_CAT_ID
p3503
V18749
p3504
sVINCLINATION
p3505
V82.51
p3506
sVINTLDES
p3507
V1988-001B
p3508
sVPERIGEE
p3509
V607
p3510
sVLAUNCH
p3511
V1988-01-06
p3512
sVOBJECT_NUMBER
p3513
V18749
p3514
sVAPOGEE
p3515
V632
p3516
sasg49
V1 18749U 88001B   16347.98688014  .00000079  00000-0  67498-5 0  9996\u000a2 18749  82.5140 119.4077 0018276 199.8207 292.6132 14.83084370562871\u000a
p3517
ssS'5730'
p3518
(dp3519
g4
(lp3520
(dp3521
VCOMMENTCODE
p3522
NsVRCS_SIZE
p3523
VLARGE
p3524
sVCOUNTRY
p3525
VCIS
p3526
sVLAUNCH_YEAR
p3527
V1971
p3528
sVFILE
p3529
V6008
p3530
sVCOMMENT
p3531
NsVRCSVALUE
p3532
V0
sVDECAY
p3533
NsVOBJECT_ID
p3534
V1971-119B
p3535
sVOBJECT_NAME
p3536
VSL-8 R/B
p3537
sVLAUNCH_NUM
p3538
V119
p3539
sVLAUNCH_PIECE
p3540
VB
sVSATNAME
p3541
VSL-8 R/B
p3542
sVOBJECT_TYPE
p3543
VROCKET BODY
p3544
sVSITE
p3545
VPKMTR
p3546
sVPERIOD
p3547
V102.79
p3548
sVCURRENT
p3549
VY
sVNORAD_CAT_ID
p3550
V5730
p3551
sVINCLINATION
p3552
V73.89
p3553
sVINTLDES
p3554
V1971-119B
p3555
sVPERIGEE
p3556
V379
p3557
sVLAUNCH
p3558
V1971-12-27
p3559
sVOBJECT_NUMBER
p3560
V5730
p3561
sVAPOGEE
p3562
V1402
p3563
sasg49
V1 05730U 71119B   16348.47643876  .00000795  00000-0  54559-4 0  9994\u000a2 05730  73.8941 105.6842 0703240  23.1182 340.0004 14.00916522179680\u000a
p3564
ssS'16882'
p3565
(dp3566
g4
(lp3567
(dp3568
VCOMMENTCODE
p3569
NsVRCS_SIZE
p3570
VLARGE
p3571
sVCOUNTRY
p3572
VCIS
p3573
sVLAUNCH_YEAR
p3574
V1986
p3575
sVFILE
p3576
V6006
p3577
sVCOMMENT
p3578
NsVRCSVALUE
p3579
V0
sVDECAY
p3580
NsVOBJECT_ID
p3581
V1986-055B
p3582
sVOBJECT_NAME
p3583
VSL-14 R/B
p3584
sVLAUNCH_NUM
p3585
V55
p3586
sVLAUNCH_PIECE
p3587
VB
sVSATNAME
p3588
VSL-14 R/B
p3589
sVOBJECT_TYPE
p3590
VROCKET BODY
p3591
sVSITE
p3592
VPKMTR
p3593
sVPERIOD
p3594
V97.09
p3595
sVCURRENT
p3596
VY
sVNORAD_CAT_ID
p3597
V16882
p3598
sVINCLINATION
p3599
V82.52
p3600
sVINTLDES
p3601
V1986-055B
p3602
sVPERIGEE
p3603
V607
p3604
sVLAUNCH
p3605
V1986-07-28
p3606
sVOBJECT_NUMBER
p3607
V16882
p3608
sVAPOGEE
p3609
V633
p3610
sasg49
V1 16882U 86055B   16348.57498123  .00000099  00000-0  92236-5 0  9995\u000a2 16882  82.5222  47.3098 0018524 300.8024 170.7764 14.83091452640375\u000a
p3611
ssS'14032'
p3612
(dp3613
g4
(lp3614
(dp3615
VCOMMENTCODE
p3616
NsVRCS_SIZE
p3617
VLARGE
p3618
sVCOUNTRY
p3619
VCIS
p3620
sVLAUNCH_YEAR
p3621
V1983
p3622
sVFILE
p3623
V6006
p3624
sVCOMMENT
p3625
NsVRCSVALUE
p3626
V0
sVDECAY
p3627
NsVOBJECT_ID
p3628
V1983-037A
p3629
sVOBJECT_NAME
p3630
VCOSMOS 1455
p3631
sVLAUNCH_NUM
p3632
V37
p3633
sVLAUNCH_PIECE
p3634
VA
sVSATNAME
p3635
VCOSMOS 1455
p3636
sVOBJECT_TYPE
p3637
VPAYLOAD
p3638
sVSITE
p3639
VPKMTR
p3640
sVPERIOD
p3641
V94.94
p3642
sVCURRENT
p3643
VY
sVNORAD_CAT_ID
p3644
V14032
p3645
sVINCLINATION
p3646
V82.52
p3647
sVINTLDES
p3648
V1983-037A
p3649
sVPERIGEE
p3650
V504
p3651
sVLAUNCH
p3652
V1983-04-23
p3653
sVOBJECT_NUMBER
p3654
V14032
p3655
sVAPOGEE
p3656
V527
p3657
sasg49
V1 14032U 83037A   16348.19741407  .00001014  00000-0  49967-4 0  9991\u000a2 14032  82.5177 270.8634 0016809 200.6190 159.4367 15.16706657833186\u000a
p3658
ssS'3597'
p3659
(dp3660
g4
(lp3661
(dp3662
VCOMMENTCODE
p3663
NsVRCS_SIZE
p3664
VLARGE
p3665
sVCOUNTRY
p3666
VUS
p3667
sVLAUNCH_YEAR
p3668
V1968
p3669
sVFILE
p3670
V6008
p3671
sVCOMMENT
p3672
NsVRCSVALUE
p3673
V0
sVDECAY
p3674
NsVOBJECT_ID
p3675
V1968-110A
p3676
sVOBJECT_NAME
p3677
VOAO 2
p3678
sVLAUNCH_NUM
p3679
V110
p3680
sVLAUNCH_PIECE
p3681
VA
sVSATNAME
p3682
VOAO 2
p3683
sVOBJECT_TYPE
p3684
VPAYLOAD
p3685
sVSITE
p3686
VAFETR
p3687
sVPERIOD
p3688
V99.60
p3689
sVCURRENT
p3690
VY
sVNORAD_CAT_ID
p3691
V3597
p3692
sVINCLINATION
p3693
V35.00
p3694
sVINTLDES
p3695
V1968-110A
p3696
sVPERIGEE
p3697
V735
p3698
sVLAUNCH
p3699
V1968-12-07
p3700
sVOBJECT_NUMBER
p3701
V3597
p3702
sVAPOGEE
p3703
V744
p3704
sasg49
V1 03597U 68110A   16347.49370159  .00000026  00000-0  12623-4 0  9995\u000a2 03597  34.9951 348.7175 0005780 192.7450 167.3094 14.45756020530877\u000a
p3705
ssS'22626'
p3706
(dp3707
g4
(lp3708
(dp3709
VCOMMENTCODE
p3710
NsVRCS_SIZE
p3711
VLARGE
p3712
sVCOUNTRY
p3713
VCIS
p3714
sVLAUNCH_YEAR
p3715
V1993
p3716
sVFILE
p3717
V6006
p3718
sVCOMMENT
p3719
NsVRCSVALUE
p3720
V0
sVDECAY
p3721
NsVOBJECT_ID
p3722
V1993-024A
p3723
sVOBJECT_NAME
p3724
VCOSMOS 2242
p3725
sVLAUNCH_NUM
p3726
V24
p3727
sVLAUNCH_PIECE
p3728
VA
sVSATNAME
p3729
VCOSMOS 2242
p3730
sVOBJECT_TYPE
p3731
VPAYLOAD
p3732
sVSITE
p3733
VPKMTR
p3734
sVPERIOD
p3735
V96.80
p3736
sVCURRENT
p3737
VY
sVNORAD_CAT_ID
p3738
V22626
p3739
sVINCLINATION
p3740
V82.52
p3741
sVINTLDES
p3742
V1993-024A
p3743
sVPERIGEE
p3744
V592
p3745
sVLAUNCH
p3746
V1993-04-16
p3747
sVOBJECT_NUMBER
p3748
V22626
p3749
sVAPOGEE
p3750
V619
p3751
sasg49
V1 22626U 93024A   16348.15255621  .00000245  00000-0  24158-4 0  9990\u000a2 22626  82.5225 217.1825 0019743  22.5404 337.6676 14.87578919278498\u000a
p3752
ssS'28353'
p3753
(dp3754
g4
(lp3755
(dp3756
VCOMMENTCODE
p3757
NsVRCS_SIZE
p3758
VLARGE
p3759
sVCOUNTRY
p3760
VCIS
p3761
sVLAUNCH_YEAR
p3762
V2004
p3763
sVFILE
p3764
V6009
p3765
sVCOMMENT
p3766
NsVRCSVALUE
p3767
V0
sVDECAY
p3768
NsVOBJECT_ID
p3769
V2004-021B
p3770
sVOBJECT_NAME
p3771
VSL-16 R/B
p3772
sVLAUNCH_NUM
p3773
V21
p3774
sVLAUNCH_PIECE
p3775
VB
sVSATNAME
p3776
VSL-16 R/B
p3777
sVOBJECT_TYPE
p3778
VROCKET BODY
p3779
sVSITE
p3780
VTTMTR
p3781
sVPERIOD
p3782
V101.83
p3783
sVCURRENT
p3784
VY
sVNORAD_CAT_ID
p3785
V28353
p3786
sVINCLINATION
p3787
V71.00
p3788
sVINTLDES
p3789
V2004-021B
p3790
sVPERIGEE
p3791
V843
p3792
sVLAUNCH
p3793
V2004-06-10
p3794
sVOBJECT_NUMBER
p3795
V28353
p3796
sVAPOGEE
p3797
V847
p3798
sasg49
V1 28353U 04021B   16348.75757515 -.00000299  00000-0 -13173-3 0  9992\u000a2 28353  70.9993 107.3404 0003325 144.9300 215.2042 14.14183791645946\u000a
p3799
ssS'21820'
p3800
(dp3801
g4
(lp3802
(dp3803
VCOMMENTCODE
p3804
NsVRCS_SIZE
p3805
VLARGE
p3806
sVCOUNTRY
p3807
VCIS
p3808
sVLAUNCH_YEAR
p3809
V1991
p3810
sVFILE
p3811
V6006
p3812
sVCOMMENT
p3813
NsVRCSVALUE
p3814
V0
sVDECAY
p3815
NsVOBJECT_ID
p3816
V1991-086B
p3817
sVOBJECT_NAME
p3818
VSL-14 R/B
p3819
sVLAUNCH_NUM
p3820
V86
p3821
sVLAUNCH_PIECE
p3822
VB
sVSATNAME
p3823
VSL-14 R/B
p3824
sVOBJECT_TYPE
p3825
VROCKET BODY
p3826
sVSITE
p3827
VPKMTR
p3828
sVPERIOD
p3829
V120.68
p3830
sVCURRENT
p3831
VY
sVNORAD_CAT_ID
p3832
V21820
p3833
sVINCLINATION
p3834
V82.56
p3835
sVINTLDES
p3836
V1991-086B
p3837
sVPERIGEE
p3838
V435
p3839
sVLAUNCH
p3840
V1991-12-18
p3841
sVOBJECT_NUMBER
p3842
V21820
p3843
sVAPOGEE
p3844
V2987
p3845
sasg49
V1 21820U 91086B   16347.79260331 +.00000143 +00000-0 +28736-4 0  9997\u000a2 21820 082.5623 228.4170 1577230 304.3606 041.7916 11.93246813084550\u000a
p3846
ssS'15945'
p3847
(dp3848
g4
(lp3849
(dp3850
VCOMMENTCODE
p3851
NsVRCS_SIZE
p3852
VLARGE
p3853
sVCOUNTRY
p3854
VCIS
p3855
sVLAUNCH_YEAR
p3856
V1985
p3857
sVFILE
p3858
V6003
p3859
sVCOMMENT
p3860
NsVRCSVALUE
p3861
V0
sVDECAY
p3862
NsVOBJECT_ID
p3863
V1985-069B
p3864
sVOBJECT_NAME
p3865
VSL-14 R/B
p3866
sVLAUNCH_NUM
p3867
V69
p3868
sVLAUNCH_PIECE
p3869
VB
sVSATNAME
p3870
VSL-14 R/B
p3871
sVOBJECT_TYPE
p3872
VROCKET BODY
p3873
sVSITE
p3874
VPKMTR
p3875
sVPERIOD
p3876
V97.04
p3877
sVCURRENT
p3878
VY
sVNORAD_CAT_ID
p3879
V15945
p3880
sVINCLINATION
p3881
V82.53
p3882
sVINTLDES
p3883
V1985-069B
p3884
sVPERIGEE
p3885
V603
p3886
sVLAUNCH
p3887
V1985-08-08
p3888
sVOBJECT_NUMBER
p3889
V15945
p3890
sVAPOGEE
p3891
V631
p3892
sasg49
V1 15945U 85069B   16347.97552027  .00000081  00000-0  67732-5 0  9999\u000a2 15945  82.5273 307.3942 0019904 172.1665 187.9865 14.83898987693414\u000a
p3893
ssS'14372'
p3894
(dp3895
g4
(lp3896
(dp3897
VCOMMENTCODE
p3898
NsVRCS_SIZE
p3899
VLARGE
p3900
sVCOUNTRY
p3901
VCIS
p3902
sVLAUNCH_YEAR
p3903
V1983
p3904
sVFILE
p3905
V6009
p3906
sVCOMMENT
p3907
NsVRCSVALUE
p3908
V0
sVDECAY
p3909
NsVOBJECT_ID
p3910
V1983-099A
p3911
sVOBJECT_NAME
p3912
VCOSMOS 1500
p3913
sVLAUNCH_NUM
p3914
V99
p3915
sVLAUNCH_PIECE
p3916
VA
sVSATNAME
p3917
VCOSMOS 1500
p3918
sVOBJECT_TYPE
p3919
VPAYLOAD
p3920
sVSITE
p3921
VPKMTR
p3922
sVPERIOD
p3923
V94.92
p3924
sVCURRENT
p3925
VY
sVNORAD_CAT_ID
p3926
V14372
p3927
sVINCLINATION
p3928
V82.51
p3929
sVINTLDES
p3930
V1983-099A
p3931
sVPERIGEE
p3932
V504
p3933
sVLAUNCH
p3934
V1983-09-28
p3935
sVOBJECT_NUMBER
p3936
V14372
p3937
sVAPOGEE
p3938
V526
p3939
sasg49
V1 14372U 83099A   16348.90020258  .00000392  00000-0  18083-4 0  9992\u000a2 14372  82.5141 166.6326 0016056  15.2130 113.7571 15.17102538809702\u000a
p3940
ssS'23088'
p3941
(dp3942
g4
(lp3943
(dp3944
VCOMMENTCODE
p3945
NsVRCS_SIZE
p3946
VLARGE
p3947
sVCOUNTRY
p3948
VCIS
p3949
sVLAUNCH_YEAR
p3950
V1994
p3951
sVFILE
p3952
V6004
p3953
sVCOMMENT
p3954
NsVRCSVALUE
p3955
V0
sVDECAY
p3956
NsVOBJECT_ID
p3957
V1994-023B
p3958
sVOBJECT_NAME
p3959
VSL-16 R/B
p3960
sVLAUNCH_NUM
p3961
V23
p3962
sVLAUNCH_PIECE
p3963
VB
sVSATNAME
p3964
VSL-16 R/B
p3965
sVOBJECT_TYPE
p3966
VROCKET BODY
p3967
sVSITE
p3968
VTTMTR
p3969
sVPERIOD
p3970
V101.79
p3971
sVCURRENT
p3972
VY
sVNORAD_CAT_ID
p3973
V23088
p3974
sVINCLINATION
p3975
V71.00
p3976
sVINTLDES
p3977
V1994-023B
p3978
sVPERIGEE
p3979
V841
p3980
sVLAUNCH
p3981
V1994-04-23
p3982
sVOBJECT_NUMBER
p3983
V23088
p3984
sVAPOGEE
p3985
V846
p3986
sasg49
V1 23088U 94023B   16348.16497056  .00000232  00000-0  14522-3 0  9993\u000a2 23088  70.9997 312.4856 0003074 343.3325  16.7696 14.14647204169239\u000a
p3987
ssS'23405'
p3988
(dp3989
g4
(lp3990
(dp3991
VCOMMENTCODE
p3992
NsVRCS_SIZE
p3993
VLARGE
p3994
sVCOUNTRY
p3995
VCIS
p3996
sVLAUNCH_YEAR
p3997
V1994
p3998
sVFILE
p3999
V5995
p4000
sVCOMMENT
p4001
NsVRCSVALUE
p4002
V0
sVDECAY
p4003
NsVOBJECT_ID
p4004
V1994-077B
p4005
sVOBJECT_NAME
p4006
VSL-16 R/B
p4007
sVLAUNCH_NUM
p4008
V77
p4009
sVLAUNCH_PIECE
p4010
VB
sVSATNAME
p4011
VSL-16 R/B
p4012
sVOBJECT_TYPE
p4013
VROCKET BODY
p4014
sVSITE
p4015
VTTMTR
p4016
sVPERIOD
p4017
V101.75
p4018
sVCURRENT
p4019
VY
sVNORAD_CAT_ID
p4020
V23405
p4021
sVINCLINATION
p4022
V70.98
p4023
sVINTLDES
p4024
V1994-077B
p4025
sVPERIGEE
p4026
V838
p4027
sVLAUNCH
p4028
V1994-11-24
p4029
sVOBJECT_NUMBER
p4030
V23405
p4031
sVAPOGEE
p4032
V845
p4033
sasg49
V1 23405U 94077B   16347.74569125 -.00000076 +00000-0 -14711-4 0  9994\u000a2 23405 070.9841 247.3872 0004937 258.3086 101.7483 14.15192284138882\u000a
p4034
ssS'2802'
p4035
(dp4036
g4
(lp4037
(dp4038
VCOMMENTCODE
p4039
NsVRCS_SIZE
p4040
VLARGE
p4041
sVCOUNTRY
p4042
VCIS
p4043
sVLAUNCH_YEAR
p4044
V1967
p4045
sVFILE
p4046
V6006
p4047
sVCOMMENT
p4048
NsVRCSVALUE
p4049
V0
sVDECAY
p4050
NsVOBJECT_ID
p4051
V1967-045B
p4052
sVOBJECT_NAME
p4053
VSL-8 R/B
p4054
sVLAUNCH_NUM
p4055
V45
p4056
sVLAUNCH_PIECE
p4057
VB
sVSATNAME
p4058
VSL-8 R/B
p4059
sVOBJECT_TYPE
p4060
VROCKET BODY
p4061
sVSITE
p4062
VPKMTR
p4063
sVPERIOD
p4064
V99.75
p4065
sVCURRENT
p4066
VY
sVNORAD_CAT_ID
p4067
V2802
p4068
sVINCLINATION
p4069
V74.01
p4070
sVINTLDES
p4071
V1967-045B
p4072
sVPERIGEE
p4073
V698
p4074
sVLAUNCH
p4075
V1967-05-15
p4076
sVOBJECT_NUMBER
p4077
V2802
p4078
sVAPOGEE
p4079
V795
p4080
sasg49
V1  2802U 67045B   16347.94291105 +.00000002 +00000-0 +86764-5 0  9994\u000a2  2802 074.0102 153.3864 0067698 252.8914 106.4821 14.43610880602101\u000a
p4081
ssS'23087'
p4082
(dp4083
g4
(lp4084
(dp4085
VCOMMENTCODE
p4086
NsVRCS_SIZE
p4087
VLARGE
p4088
sVCOUNTRY
p4089
VCIS
p4090
sVLAUNCH_YEAR
p4091
V1994
p4092
sVFILE
p4093
V6006
p4094
sVCOMMENT
p4095
NsVRCSVALUE
p4096
V0
sVDECAY
p4097
NsVOBJECT_ID
p4098
V1994-023A
p4099
sVOBJECT_NAME
p4100
VCOSMOS 2278
p4101
sVLAUNCH_NUM
p4102
V23
p4103
sVLAUNCH_PIECE
p4104
VA
sVSATNAME
p4105
VCOSMOS 2278
p4106
sVOBJECT_TYPE
p4107
VPAYLOAD
p4108
sVSITE
p4109
VTTMTR
p4110
sVPERIOD
p4111
V101.86
p4112
sVCURRENT
p4113
VY
sVNORAD_CAT_ID
p4114
V23087
p4115
sVINCLINATION
p4116
V71.05
p4117
sVINTLDES
p4118
V1994-023A
p4119
sVPERIGEE
p4120
V841
p4121
sVLAUNCH
p4122
V1994-04-23
p4123
sVOBJECT_NUMBER
p4124
V23087
p4125
sVAPOGEE
p4126
V852
p4127
sasg49
V1 23087U 94023A   16347.69124042 -.00000295  00000-0 -13134-3 0  9990\u000a2 23087  71.0537  28.7600 0007324 156.5133 203.6325 14.13731861168133\u000a
p4128
ssS'38253'
p4129
(dp4130
g4
(lp4131
(dp4132
VCOMMENTCODE
p4133
NsVRCS_SIZE
p4134
VLARGE
p4135
sVCOUNTRY
p4136
VPRC
p4137
sVLAUNCH_YEAR
p4138
V2012
p4139
sVFILE
p4140
V6009
p4141
sVCOMMENT
p4142
NsVRCSVALUE
p4143
V0
sVDECAY
p4144
NsVOBJECT_ID
p4145
V2012-018D
p4146
sVOBJECT_NAME
p4147
VCZ-3B R/B
p4148
sVLAUNCH_NUM
p4149
V18
p4150
sVLAUNCH_PIECE
p4151
VD
sVSATNAME
p4152
VCZ-3B R/B
p4153
sVOBJECT_TYPE
p4154
VROCKET BODY
p4155
sVSITE
p4156
VXSC
p4157
sVPERIOD
p4158
V147.35
p4159
sVCURRENT
p4160
VY
sVNORAD_CAT_ID
p4161
V38253
p4162
sVINCLINATION
p4163
V54.93
p4164
sVINTLDES
p4165
V2012-018D
p4166
sVPERIGEE
p4167
V154
p4168
sVLAUNCH
p4169
V2012-04-29
p4170
sVOBJECT_NUMBER
p4171
V38253
p4172
sVAPOGEE
p4173
V5573
p4174
sasg49
V1 38253U 12018D   16348.34357822  .00522583  12672-5  65251-3 0  9999\u000a2 38253  54.9314 287.6050 2931861   9.5943 355.0212  9.77241211107210\u000a
p4175
ssS'22830'
p4176
(dp4177
g4
(lp4178
(dp4179
VCOMMENTCODE
p4180
NsVRCS_SIZE
p4181
VLARGE
p4182
sVCOUNTRY
p4183
VFR
p4184
sVLAUNCH_YEAR
p4185
V1993
p4186
sVFILE
p4187
V6009
p4188
sVCOMMENT
p4189
NsVRCSVALUE
p4190
V0
sVDECAY
p4191
NsVOBJECT_ID
p4192
V1993-061H
p4193
sVOBJECT_NAME
p4194
VARIANE 40 R/B
p4195
sVLAUNCH_NUM
p4196
V61
p4197
sVLAUNCH_PIECE
p4198
VH
sVSATNAME
p4199
VARIANE 40 R/B
p4200
sVOBJECT_TYPE
p4201
VROCKET BODY
p4202
sVSITE
p4203
VFRGUI
p4204
sVPERIOD
p4205
V100.60
p4206
sVCURRENT
p4207
VY
sVNORAD_CAT_ID
p4208
V22830
p4209
sVINCLINATION
p4210
V98.89
p4211
sVINTLDES
p4212
V1993-061H
p4213
sVPERIGEE
p4214
V779
p4215
sVLAUNCH
p4216
V1993-09-26
p4217
sVOBJECT_NUMBER
p4218
V22830
p4219
sVAPOGEE
p4220
V796
p4221
sasg49
V1 22830U 93061H   16348.06512463 -.00000038  00000-0  31709-5 0  9990\u000a2 22830  98.8886 353.1673 0011843 109.8780 298.8661 14.31414344211623\u000a
p4222
ssS'24298'
p4223
(dp4224
g4
(lp4225
(dp4226
VCOMMENTCODE
p4227
NsVRCS_SIZE
p4228
VLARGE
p4229
sVCOUNTRY
p4230
VCIS
p4231
sVLAUNCH_YEAR
p4232
V1996
p4233
sVFILE
p4234
V6008
p4235
sVCOMMENT
p4236
NsVRCSVALUE
p4237
V0
sVDECAY
p4238
NsVOBJECT_ID
p4239
V1996-051B
p4240
sVOBJECT_NAME
p4241
VSL-16 R/B
p4242
sVLAUNCH_NUM
p4243
V51
p4244
sVLAUNCH_PIECE
p4245
VB
sVSATNAME
p4246
VSL-16 R/B
p4247
sVOBJECT_TYPE
p4248
VROCKET BODY
p4249
sVSITE
p4250
VTTMTR
p4251
sVPERIOD
p4252
V101.95
p4253
sVCURRENT
p4254
VY
sVNORAD_CAT_ID
p4255
V24298
p4256
sVINCLINATION
p4257
V70.85
p4258
sVINTLDES
p4259
V1996-051B
p4260
sVPERIGEE
p4261
V841
p4262
sVLAUNCH
p4263
V1996-09-04
p4264
sVOBJECT_NUMBER
p4265
V24298
p4266
sVAPOGEE
p4267
V860
p4268
sasg49
V1 24298U 96051B   16348.46722173  .00000100  00000-0  80498-4 0  9994\u000a2 24298  70.8461  93.4916 0013122 106.7180 253.5382 14.12462724 45591\u000a
p4269
ssS'29252'
p4270
(dp4271
g4
(lp4272
(dp4273
VCOMMENTCODE
p4274
NsVRCS_SIZE
p4275
VLARGE
p4276
sVCOUNTRY
p4277
VUS
p4278
sVLAUNCH_YEAR
p4279
V2006
p4280
sVFILE
p4281
V6008
p4282
sVCOMMENT
p4283
NsVRCSVALUE
p4284
V0
sVDECAY
p4285
NsVOBJECT_ID
p4286
V2006-029A
p4287
sVOBJECT_NAME
p4288
VGENESIS 1
p4289
sVLAUNCH_NUM
p4290
V29
p4291
sVLAUNCH_PIECE
p4292
VA
sVSATNAME
p4293
VGENESIS 1
p4294
sVOBJECT_TYPE
p4295
VPAYLOAD
p4296
sVSITE
p4297
VOREN
p4298
sVPERIOD
p4299
V94.96
p4300
sVCURRENT
p4301
VY
sVNORAD_CAT_ID
p4302
V29252
p4303
sVINCLINATION
p4304
V64.50
p4305
sVINTLDES
p4306
V2006-029A
p4307
sVPERIGEE
p4308
V508
p4309
sVLAUNCH
p4310
V2006-07-12
p4311
sVOBJECT_NUMBER
p4312
V29252
p4313
sVAPOGEE
p4314
V525
p4315
sasg49
V1 29252U 06029A   16347.89229313  .00000460  00000-0  33779-4 0  9998\u000a2 29252  64.5041 173.7944 0012833 227.6470 232.8799 15.16468392573585\u000a
p4316
ssS'733'
p4317
(dp4318
g4
(lp4319
(dp4320
VCOMMENTCODE
p4321
NsVRCS_SIZE
p4322
VLARGE
p4323
sVCOUNTRY
p4324
VUS
p4325
sVLAUNCH_YEAR
p4326
V1964
p4327
sVFILE
p4328
V6009
p4329
sVCOMMENT
p4330
NsVRCSVALUE
p4331
V0
sVDECAY
p4332
NsVOBJECT_ID
p4333
V1964-002A
p4334
sVOBJECT_NAME
p4335
VTHOR AGENA D R/B
p4336
sVLAUNCH_NUM
p4337
V2
sVLAUNCH_PIECE
p4338
VA
sVSATNAME
p4339
VTHOR AGENA D R/B
p4340
sVOBJECT_TYPE
p4341
VROCKET BODY
p4342
sVSITE
p4343
VAFWTR
p4344
sVPERIOD
p4345
V100.54
p4346
sVCURRENT
p4347
VY
sVNORAD_CAT_ID
p4348
V733
p4349
sVINCLINATION
p4350
V99.11
p4351
sVINTLDES
p4352
V1964-002A
p4353
sVPERIGEE
p4354
V760
p4355
sVLAUNCH
p4356
V1964-01-19
p4357
sVOBJECT_NUMBER
p4358
V733
p4359
sVAPOGEE
p4360
V808
p4361
sasg49
V1 00733U 64002A   16348.12869225  .00000016  00000-0  23708-4 0  9993\u000a2 00733  99.1150 157.9754 0033859   0.5589 359.5625 14.32248114755678\u000a
p4362
ssS'12139'
p4363
(dp4364
g4
(lp4365
(dp4366
VCOMMENTCODE
p4367
NsVRCS_SIZE
p4368
VLARGE
p4369
sVCOUNTRY
p4370
VCIS
p4371
sVLAUNCH_YEAR
p4372
V1981
p4373
sVFILE
p4374
V6006
p4375
sVCOMMENT
p4376
NsVRCSVALUE
p4377
V0
sVDECAY
p4378
NsVOBJECT_ID
p4379
V1981-003B
p4380
sVOBJECT_NAME
p4381
VSL-8 R/B
p4382
sVLAUNCH_NUM
p4383
V3
sVLAUNCH_PIECE
p4384
VB
sVSATNAME
p4385
VSL-8 R/B
p4386
sVOBJECT_TYPE
p4387
VROCKET BODY
p4388
sVSITE
p4389
VPKMTR
p4390
sVPERIOD
p4391
V99.11
p4392
sVCURRENT
p4393
VY
sVNORAD_CAT_ID
p4394
V12139
p4395
sVINCLINATION
p4396
V82.95
p4397
sVINTLDES
p4398
V1981-003B
p4399
sVPERIGEE
p4400
V376
p4401
sVLAUNCH
p4402
V1981-01-16
p4403
sVOBJECT_NUMBER
p4404
V12139
p4405
sVAPOGEE
p4406
V1056
p4407
sasg49
V1 12139U 81003B   16348.73761656  .00003218  00000-0  15680-3 0  9998\u000a2 12139  82.9468 327.4821 0479098  11.6633 349.5202 14.53000058820033\u000a
p4408
ssS'21938'
p4409
(dp4410
g4
(lp4411
(dp4412
VCOMMENTCODE
p4413
NsVRCS_SIZE
p4414
VLARGE
p4415
sVCOUNTRY
p4416
VCIS
p4417
sVLAUNCH_YEAR
p4418
V1992
p4419
sVFILE
p4420
V6009
p4421
sVCOMMENT
p4422
NsVRCSVALUE
p4423
V0
sVDECAY
p4424
NsVOBJECT_ID
p4425
V1992-020B
p4426
sVOBJECT_NAME
p4427
VSL-8 R/B
p4428
sVLAUNCH_NUM
p4429
V20
p4430
sVLAUNCH_PIECE
p4431
VB
sVSATNAME
p4432
VSL-8 R/B
p4433
sVOBJECT_TYPE
p4434
VROCKET BODY
p4435
sVSITE
p4436
VPKMTR
p4437
sVPERIOD
p4438
V104.71
p4439
sVCURRENT
p4440
VY
sVNORAD_CAT_ID
p4441
V21938
p4442
sVINCLINATION
p4443
V82.93
p4444
sVINTLDES
p4445
V1992-020B
p4446
sVPERIGEE
p4447
V960
p4448
sVLAUNCH
p4449
V1992-04-15
p4450
sVOBJECT_NUMBER
p4451
V21938
p4452
sVAPOGEE
p4453
V1002
p4454
sasg49
V1 21938U 92020B   16348.90680758  .00000091  00000-0  79502-4 0  9998\u000a2 21938  82.9290 138.0254 0028866 351.4941 118.6338 13.75256149237820\u000a
p4455
ssS'25860'
p4456
(dp4457
g4
(lp4458
(dp4459
VCOMMENTCODE
p4460
NsVRCS_SIZE
p4461
VLARGE
p4462
sVCOUNTRY
p4463
VCIS
p4464
sVLAUNCH_YEAR
p4465
V1999
p4466
sVFILE
p4467
V6009
p4468
sVCOMMENT
p4469
NsVRCSVALUE
p4470
V0
sVDECAY
p4471
NsVOBJECT_ID
p4472
V1999-039A
p4473
sVOBJECT_NAME
p4474
VOKEAN O
p4475
sVLAUNCH_NUM
p4476
V39
p4477
sVLAUNCH_PIECE
p4478
VA
sVSATNAME
p4479
VOKEAN O
p4480
sVOBJECT_TYPE
p4481
VPAYLOAD
p4482
sVSITE
p4483
VTTMTR
p4484
sVPERIOD
p4485
V97.53
p4486
sVCURRENT
p4487
VY
sVNORAD_CAT_ID
p4488
V25860
p4489
sVINCLINATION
p4490
V98.17
p4491
sVINTLDES
p4492
V1999-039A
p4493
sVPERIGEE
p4494
V640
p4495
sVLAUNCH
p4496
V1999-07-17
p4497
sVOBJECT_NUMBER
p4498
V25860
p4499
sVAPOGEE
p4500
V642
p4501
sasg49
V1 25860U 99039A   16348.51830270  .00000049  00000-0  14704-4 0  9992\u000a2 25860  98.1661 325.0820 0001571  68.6738 291.4639 14.76432656936439\u000a
p4502
ssS'25861'
p4503
(dp4504
g4
(lp4505
(dp4506
VCOMMENTCODE
p4507
NsVRCS_SIZE
p4508
VLARGE
p4509
sVCOUNTRY
p4510
VCIS
p4511
sVLAUNCH_YEAR
p4512
V1999
p4513
sVFILE
p4514
V6006
p4515
sVCOMMENT
p4516
NsVRCSVALUE
p4517
V0
sVDECAY
p4518
NsVOBJECT_ID
p4519
V1999-039B
p4520
sVOBJECT_NAME
p4521
VSL-16 R/B
p4522
sVLAUNCH_NUM
p4523
V39
p4524
sVLAUNCH_PIECE
p4525
VB
sVSATNAME
p4526
VSL-16 R/B
p4527
sVOBJECT_TYPE
p4528
VROCKET BODY
p4529
sVSITE
p4530
VTTMTR
p4531
sVPERIOD
p4532
V97.40
p4533
sVCURRENT
p4534
VY
sVNORAD_CAT_ID
p4535
V25861
p4536
sVINCLINATION
p4537
V98.08
p4538
sVINTLDES
p4539
V1999-039B
p4540
sVPERIGEE
p4541
V624
p4542
sVLAUNCH
p4543
V1999-07-17
p4544
sVOBJECT_NUMBER
p4545
V25861
p4546
sVAPOGEE
p4547
V645
p4548
sasg49
V1 25861U 99039B   16348.52948241  .00000032  00000-0  11753-4 0  9995\u000a2 25861  98.0795 312.8808 0014890 323.7616 148.4140 14.78371788938345\u000a
p4549
ssS'41337'
p4550
(dp4551
g4
(lp4552
(dp4553
VCOMMENTCODE
p4554
NsVRCS_SIZE
p4555
VLARGE
p4556
sVCOUNTRY
p4557
VJPN
p4558
sVLAUNCH_YEAR
p4559
V2016
p4560
sVFILE
p4561
V6008
p4562
sVCOMMENT
p4563
NsVRCSVALUE
p4564
V0
sVDECAY
p4565
NsVOBJECT_ID
p4566
V2016-012A
p4567
sVOBJECT_NAME
p4568
VASTRO H
p4569
sVLAUNCH_NUM
p4570
V12
p4571
sVLAUNCH_PIECE
p4572
VA
sVSATNAME
p4573
VASTRO H
p4574
sVOBJECT_TYPE
p4575
VPAYLOAD
p4576
sVSITE
p4577
VTNSTA
p4578
sVPERIOD
p4579
V96.11
p4580
sVCURRENT
p4581
VY
sVNORAD_CAT_ID
p4582
V41337
p4583
sVINCLINATION
p4584
V31.00
p4585
sVINTLDES
p4586
V2016-012A
p4587
sVPERIGEE
p4588
V564
p4589
sVLAUNCH
p4590
V2016-02-17
p4591
sVOBJECT_NUMBER
p4592
V41337
p4593
sVAPOGEE
p4594
V581
p4595
sasg49
V1 41337U 16012A   16347.91465089 +.00000328 +00000-0 +20001-4 0  9991\u000a2 41337 031.0049 219.0699 0012477 000.5166 359.5481 14.98208659044962\u000a
p4596
ssS'16496'
p4597
(dp4598
g4
(lp4599
(dp4600
VCOMMENTCODE
p4601
NsVRCS_SIZE
p4602
VLARGE
p4603
sVCOUNTRY
p4604
VCIS
p4605
sVLAUNCH_YEAR
p4606
V1986
p4607
sVFILE
p4608
V6006
p4609
sVCOMMENT
p4610
NsVRCSVALUE
p4611
V0
sVDECAY
p4612
NsVOBJECT_ID
p4613
V1986-006B
p4614
sVOBJECT_NAME
p4615
VSL-14 R/B
p4616
sVLAUNCH_NUM
p4617
V6
sVLAUNCH_PIECE
p4618
VB
sVSATNAME
p4619
VSL-14 R/B
p4620
sVOBJECT_TYPE
p4621
VROCKET BODY
p4622
sVSITE
p4623
VPKMTR
p4624
sVPERIOD
p4625
V97.03
p4626
sVCURRENT
p4627
VY
sVNORAD_CAT_ID
p4628
V16496
p4629
sVINCLINATION
p4630
V82.52
p4631
sVINTLDES
p4632
V1986-006B
p4633
sVPERIGEE
p4634
V604
p4635
sVLAUNCH
p4636
V1986-01-17
p4637
sVOBJECT_NUMBER
p4638
V16496
p4639
sVAPOGEE
p4640
V630
p4641
sasg49
V1 16496U 86006B   16348.50917509  .00000103  00000-0  94402-5 0  9992\u000a2 16496  82.5242 183.3336 0018426 326.5618  94.9461 14.84003406669813\u000a
p4642
ssS'26874'
p4643
(dp4644
g4
(lp4645
(dp4646
VCOMMENTCODE
p4647
NsVRCS_SIZE
p4648
VLARGE
p4649
sVCOUNTRY
p4650
VCIS
p4651
sVLAUNCH_YEAR
p4652
V2001
p4653
sVFILE
p4654
V6008
p4655
sVCOMMENT
p4656
NsVRCSVALUE
p4657
V0
sVDECAY
p4658
NsVOBJECT_ID
p4659
V2001-032B
p4660
sVOBJECT_NAME
p4661
VSL-14 R/B
p4662
sVLAUNCH_NUM
p4663
V32
p4664
sVLAUNCH_PIECE
p4665
VB
sVSATNAME
p4666
VSL-14 R/B
p4667
sVOBJECT_TYPE
p4668
VROCKET BODY
p4669
sVSITE
p4670
VPKMTR
p4671
sVPERIOD
p4672
V90.36
p4673
sVCURRENT
p4674
VY
sVNORAD_CAT_ID
p4675
V26874
p4676
sVINCLINATION
p4677
V82.46
p4678
sVINTLDES
p4679
V2001-032B
p4680
sVPERIGEE
p4681
V289
p4682
sVLAUNCH
p4683
V2001-07-31
p4684
sVOBJECT_NUMBER
p4685
V26874
p4686
sVAPOGEE
p4687
V295
p4688
sasg49
V1 26874U 01032B   16348.20590339  .00038927 -59449-6  10739-3 0  9996\u000a2 26874  82.4566  84.2151 0004431 228.7755 131.3138 15.93668450864026\u000a
p4689
ssS'8063'
p4690
(dp4691
g4
(lp4692
(dp4693
VCOMMENTCODE
p4694
NsVRCS_SIZE
p4695
VLARGE
p4696
sVCOUNTRY
p4697
VUS
p4698
sVLAUNCH_YEAR
p4699
V1975
p4700
sVFILE
p4701
V6009
p4702
sVCOMMENT
p4703
NsVRCSVALUE
p4704
V0
sVDECAY
p4705
NsVOBJECT_ID
p4706
V1975-072B
p4707
sVOBJECT_NAME
p4708
VDELTA 1 R/B
p4709
sVLAUNCH_NUM
p4710
V72
p4711
sVLAUNCH_PIECE
p4712
VB
sVSATNAME
p4713
VDELTA 1 R/B
p4714
sVOBJECT_TYPE
p4715
VROCKET BODY
p4716
sVSITE
p4717
VAFWTR
p4718
sVPERIOD
p4719
V92.14
p4720
sVCURRENT
p4721
VY
sVNORAD_CAT_ID
p4722
V8063
p4723
sVINCLINATION
p4724
V89.10
p4725
sVINTLDES
p4726
V1975-072B
p4727
sVPERIGEE
p4728
V255
p4729
sVLAUNCH
p4730
V1975-08-09
p4731
sVOBJECT_NUMBER
p4732
V8063
p4733
sVAPOGEE
p4734
V504
p4735
sasg49
V1 08063U 75072B   16348.49173672  .00064303  21360-7  29190-3 0  9998\u000a2 08063  89.0977  60.2088 0183919  65.7257 296.3101 15.62840237860662\u000a
p4736
ssS'16182'
p4737
(dp4738
g4
(lp4739
(dp4740
VCOMMENTCODE
p4741
NsVRCS_SIZE
p4742
VLARGE
p4743
sVCOUNTRY
p4744
VCIS
p4745
sVLAUNCH_YEAR
p4746
V1985
p4747
sVFILE
p4748
V6004
p4749
sVCOMMENT
p4750
NsVRCSVALUE
p4751
V0
sVDECAY
p4752
NsVOBJECT_ID
p4753
V1985-097B
p4754
sVOBJECT_NAME
p4755
VSL-16 R/B
p4756
sVLAUNCH_NUM
p4757
V97
p4758
sVLAUNCH_PIECE
p4759
VB
sVSATNAME
p4760
VSL-16 R/B
p4761
sVOBJECT_TYPE
p4762
VROCKET BODY
p4763
sVSITE
p4764
VTTMTR
p4765
sVPERIOD
p4766
V101.68
p4767
sVCURRENT
p4768
VY
sVNORAD_CAT_ID
p4769
V16182
p4770
sVINCLINATION
p4771
V71.00
p4772
sVINTLDES
p4773
V1985-097B
p4774
sVPERIGEE
p4775
V832
p4776
sVLAUNCH
p4777
V1985-10-22
p4778
sVOBJECT_NUMBER
p4779
V16182
p4780
sVAPOGEE
p4781
V844
p4782
sasg49
V1 16182U 85097B   16347.73795918 -.00000138  00000-0 -45564-4 0  9999\u000a2 16182  71.0034  40.3459 0008145 340.7447 150.0344 14.16205674609825\u000a
p4783
ssS'22803'
p4784
(dp4785
g4
(lp4786
(dp4787
VCOMMENTCODE
p4788
NsVRCS_SIZE
p4789
VLARGE
p4790
sVCOUNTRY
p4791
VCIS
p4792
sVLAUNCH_YEAR
p4793
V1993
p4794
sVFILE
p4795
V6007
p4796
sVCOMMENT
p4797
NsVRCSVALUE
p4798
V0
sVDECAY
p4799
NsVOBJECT_ID
p4800
V1993-059B
p4801
sVOBJECT_NAME
p4802
VSL-16 R/B
p4803
sVLAUNCH_NUM
p4804
V59
p4805
sVLAUNCH_PIECE
p4806
VB
sVSATNAME
p4807
VSL-16 R/B
p4808
sVOBJECT_TYPE
p4809
VROCKET BODY
p4810
sVSITE
p4811
VTTMTR
p4812
sVPERIOD
p4813
V101.64
p4814
sVCURRENT
p4815
VY
sVNORAD_CAT_ID
p4816
V22803
p4817
sVINCLINATION
p4818
V70.99
p4819
sVINTLDES
p4820
V1993-059B
p4821
sVPERIGEE
p4822
V822
p4823
sVLAUNCH
p4824
V1993-09-16
p4825
sVOBJECT_NUMBER
p4826
V22803
p4827
sVAPOGEE
p4828
V850
p4829
sasg49
V1 22803U 93059B   16348.81859959 -.00000256  00000-0 -10377-3 0  9993\u000a2 22803  70.9909 280.0450 0019278 303.5228  56.4053 14.16759653202026\u000a
p4830
ssS'22286'
p4831
(dp4832
g4
(lp4833
(dp4834
VCOMMENTCODE
p4835
NsVRCS_SIZE
p4836
VLARGE
p4837
sVCOUNTRY
p4838
VCIS
p4839
sVLAUNCH_YEAR
p4840
V1992
p4841
sVFILE
p4842
V6006
p4843
sVCOMMENT
p4844
NsVRCSVALUE
p4845
V0
sVDECAY
p4846
NsVOBJECT_ID
p4847
V1992-094A
p4848
sVOBJECT_NAME
p4849
VCOSMOS 2228
p4850
sVLAUNCH_NUM
p4851
V94
p4852
sVLAUNCH_PIECE
p4853
VA
sVSATNAME
p4854
VCOSMOS 2228
p4855
sVOBJECT_TYPE
p4856
VPAYLOAD
p4857
sVSITE
p4858
VPKMTR
p4859
sVPERIOD
p4860
V96.80
p4861
sVCURRENT
p4862
VY
sVNORAD_CAT_ID
p4863
V22286
p4864
sVINCLINATION
p4865
V82.52
p4866
sVINTLDES
p4867
V1992-094A
p4868
sVPERIGEE
p4869
V591
p4870
sVLAUNCH
p4871
V1992-12-25
p4872
sVOBJECT_NUMBER
p4873
V22286
p4874
sVAPOGEE
p4875
V620
p4876
sasg49
V1 22286U 92094A   16348.53723506  .00000229  00000-0  22439-4 0  9994\u000a2 22286  82.5205 189.1239 0021168  21.6649 338.5459 14.87578199294891\u000a
p4877
ssS'22285'
p4878
(dp4879
g4
(lp4880
(dp4881
VCOMMENTCODE
p4882
NsVRCS_SIZE
p4883
VLARGE
p4884
sVCOUNTRY
p4885
VCIS
p4886
sVLAUNCH_YEAR
p4887
V1992
p4888
sVFILE
p4889
V6006
p4890
sVCOMMENT
p4891
NsVRCSVALUE
p4892
V0
sVDECAY
p4893
NsVOBJECT_ID
p4894
V1992-093B
p4895
sVOBJECT_NAME
p4896
VSL-16 R/B
p4897
sVLAUNCH_NUM
p4898
V93
p4899
sVLAUNCH_PIECE
p4900
VB
sVSATNAME
p4901
VSL-16 R/B
p4902
sVOBJECT_TYPE
p4903
VROCKET BODY
p4904
sVSITE
p4905
VTTMTR
p4906
sVPERIOD
p4907
V101.77
p4908
sVCURRENT
p4909
VY
sVNORAD_CAT_ID
p4910
V22285
p4911
sVINCLINATION
p4912
V71.02
p4913
sVINTLDES
p4914
V1992-093B
p4915
sVPERIGEE
p4916
V840
p4917
sVLAUNCH
p4918
V1992-12-25
p4919
sVOBJECT_NUMBER
p4920
V22285
p4921
sVAPOGEE
p4922
V844
p4923
sasg49
V1 22285U 92093B   16348.80957278  .00000221  00000-0  13842-3 0  9996\u000a2 22285  71.0222 241.1540 0002911  20.7065 339.4175 14.15006067236312\u000a
p4924
ssS'17295'
p4925
(dp4926
g4
(lp4927
(dp4928
VCOMMENTCODE
p4929
NsVRCS_SIZE
p4930
VLARGE
p4931
sVCOUNTRY
p4932
VCIS
p4933
sVLAUNCH_YEAR
p4934
V1987
p4935
sVFILE
p4936
V6006
p4937
sVCOMMENT
p4938
NsVRCSVALUE
p4939
V0
sVDECAY
p4940
NsVOBJECT_ID
p4941
V1987-003A
p4942
sVOBJECT_NAME
p4943
VCOSMOS 1812
p4944
sVLAUNCH_NUM
p4945
V3
sVLAUNCH_PIECE
p4946
VA
sVSATNAME
p4947
VCOSMOS 1812
p4948
sVOBJECT_TYPE
p4949
VPAYLOAD
p4950
sVSITE
p4951
VPKMTR
p4952
sVPERIOD
p4953
V95.10
p4954
sVCURRENT
p4955
VY
sVNORAD_CAT_ID
p4956
V17295
p4957
sVINCLINATION
p4958
V82.51
p4959
sVINTLDES
p4960
V1987-003A
p4961
sVPERIGEE
p4962
V520
p4963
sVLAUNCH
p4964
V1987-01-14
p4965
sVOBJECT_NUMBER
p4966
V17295
p4967
sVAPOGEE
p4968
V527
p4969
sasg49
V1 17295U 87003A   16348.86093352  .00000343  00000-0  17063-4 0  9991\u000a2 17295  82.5134 327.2777 0004999  63.3396 296.8347 15.14184955630916\u000a
p4970
ssS'7004'
p4971
(dp4972
g4
(lp4973
(dp4974
VCOMMENTCODE
p4975
NsVRCS_SIZE
p4976
VLARGE
p4977
sVCOUNTRY
p4978
VCIS
p4979
sVLAUNCH_YEAR
p4980
V1973
p4981
sVFILE
p4982
V6006
p4983
sVCOMMENT
p4984
NsVRCSVALUE
p4985
V0
sVDECAY
p4986
NsVOBJECT_ID
p4987
V1973-107B
p4988
sVOBJECT_NAME
p4989
VSL-8 R/B
p4990
sVLAUNCH_NUM
p4991
V107
p4992
sVLAUNCH_PIECE
p4993
VB
sVSATNAME
p4994
VSL-8 R/B
p4995
sVOBJECT_TYPE
p4996
VROCKET BODY
p4997
sVSITE
p4998
VPKMTR
p4999
sVPERIOD
p5000
V93.83
p5001
sVCURRENT
p5002
VY
sVNORAD_CAT_ID
p5003
V7004
p5004
sVINCLINATION
p5005
V73.94
p5006
sVINTLDES
p5007
V1973-107B
p5008
sVPERIGEE
p5009
V332
p5010
sVLAUNCH
p5011
V1973-12-26
p5012
sVOBJECT_NUMBER
p5013
V7004
p5014
sVAPOGEE
p5015
V592
p5016
sasg49
V1 07004U 73107B   16347.91176097  .00005690  00000-0  93731-4 0  9997\u000a2 07004  73.9364 106.5797 0190309  23.4837 337.4911 15.34718823208582\u000a
p5017
ssS'20323'
p5018
(dp5019
g4
(lp5020
(dp5021
VCOMMENTCODE
p5022
NsVRCS_SIZE
p5023
VLARGE
p5024
sVCOUNTRY
p5025
VUS
p5026
sVLAUNCH_YEAR
p5027
V1989
p5028
sVFILE
p5029
V6006
p5030
sVCOMMENT
p5031
NsVRCSVALUE
p5032
V0
sVDECAY
p5033
NsVOBJECT_ID
p5034
V1989-089B
p5035
sVOBJECT_NAME
p5036
VDELTA 1 R/B
p5037
sVLAUNCH_NUM
p5038
V89
p5039
sVLAUNCH_PIECE
p5040
VB
sVSATNAME
p5041
VDELTA 1 R/B
p5042
sVOBJECT_TYPE
p5043
VROCKET BODY
p5044
sVSITE
p5045
VAFWTR
p5046
sVPERIOD
p5047
V99.44
p5048
sVCURRENT
p5049
VY
sVNORAD_CAT_ID
p5050
V20323
p5051
sVINCLINATION
p5052
V97.08
p5053
sVINTLDES
p5054
V1989-089B
p5055
sVPERIGEE
p5056
V681
p5057
sVLAUNCH
p5058
V1989-11-18
p5059
sVOBJECT_NUMBER
p5060
V20323
p5061
sVAPOGEE
p5062
V782
p5063
sasg49
V1 20323U 89089B   16348.88032885  .00000033  00000-0  17995-4 0  9999\u000a2 20323  97.0839 318.2416 0070655 304.1977  55.2536 14.48166500427900\u000a
p5064
ssS'25994'
p5065
(dp5066
g4
(lp5067
(dp5068
VCOMMENTCODE
p5069
NsVRCS_SIZE
p5070
VLARGE
p5071
sVCOUNTRY
p5072
VUS
p5073
sVLAUNCH_YEAR
p5074
V1999
p5075
sVFILE
p5076
V6004
p5077
sVCOMMENT
p5078
NsVRCSVALUE
p5079
V0
sVDECAY
p5080
NsVOBJECT_ID
p5081
V1999-068A
p5082
sVOBJECT_NAME
p5083
VTERRA
p5084
sVLAUNCH_NUM
p5085
V68
p5086
sVLAUNCH_PIECE
p5087
VA
sVSATNAME
p5088
VTERRA
p5089
sVOBJECT_TYPE
p5090
VPAYLOAD
p5091
sVSITE
p5092
VAFWTR
p5093
sVPERIOD
p5094
V98.83
p5095
sVCURRENT
p5096
VY
sVNORAD_CAT_ID
p5097
V25994
p5098
sVINCLINATION
p5099
V98.21
p5100
sVINTLDES
p5101
V1999-068A
p5102
sVPERIGEE
p5103
V702
p5104
sVLAUNCH
p5105
V1999-12-18
p5106
sVOBJECT_NUMBER
p5107
V25994
p5108
sVAPOGEE
p5109
V703
p5110
sasg49
V1 25994U 99068A   16348.79722685  .00000167  00000-0  47185-4 0  9992\u000a2 25994  98.2066  60.4916 0000774 101.2780 258.8505 14.57114558903674\u000a
p5111
ssS'15494'
p5112
(dp5113
g4
(lp5114
(dp5115
VCOMMENTCODE
p5116
NsVRCS_SIZE
p5117
VLARGE
p5118
sVCOUNTRY
p5119
VCIS
p5120
sVLAUNCH_YEAR
p5121
V1985
p5122
sVFILE
p5123
V6009
p5124
sVCOMMENT
p5125
NsVRCSVALUE
p5126
V0
sVDECAY
p5127
NsVOBJECT_ID
p5128
V1985-009A
p5129
sVOBJECT_NAME
p5130
VCOSMOS 1626
p5131
sVLAUNCH_NUM
p5132
V9
sVLAUNCH_PIECE
p5133
VA
sVSATNAME
p5134
VCOSMOS 1626
p5135
sVOBJECT_TYPE
p5136
VPAYLOAD
p5137
sVSITE
p5138
VPKMTR
p5139
sVPERIOD
p5140
V94.61
p5141
sVCURRENT
p5142
VY
sVNORAD_CAT_ID
p5143
V15494
p5144
sVINCLINATION
p5145
V82.48
p5146
sVINTLDES
p5147
V1985-009A
p5148
sVPERIGEE
p5149
V498
p5150
sVLAUNCH
p5151
V1985-01-24
p5152
sVOBJECT_NUMBER
p5153
V15494
p5154
sVAPOGEE
p5155
V501
p5156
sasg49
V1 15494U 85009A   16348.22343182  .00001076  00000-0  45741-4 0  9991\u000a2 15494  82.4812  75.6525 0002281  21.3233  36.8491 15.21961621740496\u000a
p5157
ssS'28773'
p5158
(dp5159
g4
(lp5160
(dp5161
VCOMMENTCODE
p5162
NsVRCS_SIZE
p5163
VLARGE
p5164
sVCOUNTRY
p5165
VJPN
p5166
sVLAUNCH_YEAR
p5167
V2005
p5168
sVFILE
p5169
V5999
p5170
sVCOMMENT
p5171
NsVRCSVALUE
p5172
V0
sVDECAY
p5173
NsVOBJECT_ID
p5174
V2005-025A
p5175
sVOBJECT_NAME
p5176
VASTRO E2
p5177
sVLAUNCH_NUM
p5178
V25
p5179
sVLAUNCH_PIECE
p5180
VA
sVSATNAME
p5181
VASTRO E2
p5182
sVOBJECT_TYPE
p5183
VPAYLOAD
p5184
sVSITE
p5185
VKSCUT
p5186
sVPERIOD
p5187
V95.03
p5188
sVCURRENT
p5189
VY
sVNORAD_CAT_ID
p5190
V28773
p5191
sVINCLINATION
p5192
V31.38
p5193
sVINTLDES
p5194
V2005-025A
p5195
sVPERIGEE
p5196
V517
p5197
sVLAUNCH
p5198
V2005-07-10
p5199
sVOBJECT_NUMBER
p5200
V28773
p5201
sVAPOGEE
p5202
V523
p5203
sasg49
V1 28773U 05025A   16348.46791023  .00001243  00000-0  59788-4 0  9994\u000a2 28773  31.3837  60.3640 0004905 283.9886  76.0215 15.15359046629158\u000a
p5204
ssS'14819'
p5205
(dp5206
g4
(lp5207
(dp5208
VCOMMENTCODE
p5209
NsVRCS_SIZE
p5210
VLARGE
p5211
sVCOUNTRY
p5212
VCIS
p5213
sVLAUNCH_YEAR
p5214
V1984
p5215
sVFILE
p5216
V6008
p5217
sVCOMMENT
p5218
NsVRCSVALUE
p5219
V0
sVDECAY
p5220
NsVOBJECT_ID
p5221
V1984-027A
p5222
sVOBJECT_NAME
p5223
VCOSMOS 1544
p5224
sVLAUNCH_NUM
p5225
V27
p5226
sVLAUNCH_PIECE
p5227
VA
sVSATNAME
p5228
VCOSMOS 1544
p5229
sVOBJECT_TYPE
p5230
VPAYLOAD
p5231
sVSITE
p5232
VPKMTR
p5233
sVPERIOD
p5234
V94.41
p5235
sVCURRENT
p5236
VY
sVNORAD_CAT_ID
p5237
V14819
p5238
sVINCLINATION
p5239
V82.48
p5240
sVINTLDES
p5241
V1984-027A
p5242
sVPERIGEE
p5243
V480
p5244
sVLAUNCH
p5245
V1984-03-15
p5246
sVOBJECT_NUMBER
p5247
V14819
p5248
sVAPOGEE
p5249
V500
p5250
sasg49
V1 14819U 84027A   16348.52475646  .00001278  00000-0  49364-4 0  9993\u000a2 14819  82.4848 214.2730 0014189 339.8670  20.2006 15.25249203787507\u000a
p5251
ssS'25400'
p5252
(dp5253
g4
(lp5254
(dp5255
VCOMMENTCODE
p5256
NsVRCS_SIZE
p5257
VLARGE
p5258
sVCOUNTRY
p5259
VCIS
p5260
sVLAUNCH_YEAR
p5261
V1998
p5262
sVFILE
p5263
V6004
p5264
sVCOMMENT
p5265
NsVRCSVALUE
p5266
V0
sVDECAY
p5267
NsVOBJECT_ID
p5268
V1998-043G
p5269
sVOBJECT_NAME
p5270
VSL-16 R/B
p5271
sVLAUNCH_NUM
p5272
V43
p5273
sVLAUNCH_PIECE
p5274
VG
sVSATNAME
p5275
VSL-16 R/B
p5276
sVOBJECT_TYPE
p5277
VROCKET BODY
p5278
sVSITE
p5279
VTTMTR
p5280
sVPERIOD
p5281
V101.02
p5282
sVCURRENT
p5283
VY
sVNORAD_CAT_ID
p5284
V25400
p5285
sVINCLINATION
p5286
V98.46
p5287
sVINTLDES
p5288
V1998-043G
p5289
sVPERIGEE
p5290
V799
p5291
sVLAUNCH
p5292
V1998-07-10
p5293
sVOBJECT_NUMBER
p5294
V25400
p5295
sVAPOGEE
p5296
V815
p5297
sasg49
V1 25400U 98043G   16347.98580150 -.00000014  00000-0  11706-4 0  9997\u000a2 25400  98.4642 296.4038 0010847 117.3488 242.8798 14.25398846958541\u000a
p5298
ssS'33504'
p5299
(dp5300
g4
(lp5301
(dp5302
VCOMMENTCODE
p5303
NsVRCS_SIZE
p5304
VLARGE
p5305
sVCOUNTRY
p5306
VCIS
p5307
sVLAUNCH_YEAR
p5308
V2009
p5309
sVFILE
p5310
V6004
p5311
sVCOMMENT
p5312
NsVRCSVALUE
p5313
V0
sVDECAY
p5314
NsVOBJECT_ID
p5315
V2009-003A
p5316
sVOBJECT_NAME
p5317
VKORONAS-FOTON
p5318
sVLAUNCH_NUM
p5319
V3
sVLAUNCH_PIECE
p5320
VA
sVSATNAME
p5321
VKORONAS-FOTON
p5322
sVOBJECT_TYPE
p5323
VPAYLOAD
p5324
sVSITE
p5325
VPKMTR
p5326
sVPERIOD
p5327
V95.07
p5328
sVCURRENT
p5329
VY
sVNORAD_CAT_ID
p5330
V33504
p5331
sVINCLINATION
p5332
V82.44
p5333
sVINTLDES
p5334
V2009-003A
p5335
sVPERIGEE
p5336
V508
p5337
sVLAUNCH
p5338
V2009-01-30
p5339
sVOBJECT_NUMBER
p5340
V33504
p5341
sVAPOGEE
p5342
V536
p5343
sasg49
V1 33504U 09003A   16348.73618623  .00000897  00000-0  46656-4 0  9990\u000a2 33504  82.4440  57.2407 0020321  34.8942 325.3617 15.14616811433407\u000a
p5344
ssS'25407'
p5345
(dp5346
g4
(lp5347
(dp5348
VCOMMENTCODE
p5349
NsVRCS_SIZE
p5350
VLARGE
p5351
sVCOUNTRY
p5352
VCIS
p5353
sVLAUNCH_YEAR
p5354
V1998
p5355
sVFILE
p5356
V6006
p5357
sVCOMMENT
p5358
NsVRCSVALUE
p5359
V0
sVDECAY
p5360
NsVOBJECT_ID
p5361
V1998-045B
p5362
sVOBJECT_NAME
p5363
VSL-16 R/B
p5364
sVLAUNCH_NUM
p5365
V45
p5366
sVLAUNCH_PIECE
p5367
VB
sVSATNAME
p5368
VSL-16 R/B
p5369
sVOBJECT_TYPE
p5370
VROCKET BODY
p5371
sVSITE
p5372
VTTMTR
p5373
sVPERIOD
p5374
V101.71
p5375
sVCURRENT
p5376
VY
sVNORAD_CAT_ID
p5377
V25407
p5378
sVINCLINATION
p5379
V71.01
p5380
sVINTLDES
p5381
V1998-045B
p5382
sVPERIGEE
p5383
V835
p5384
sVLAUNCH
p5385
V1998-07-28
p5386
sVOBJECT_NUMBER
p5387
V25407
p5388
sVAPOGEE
p5389
V844
p5390
sasg49
V1 25407U 98045B   16348.32937683 -.00000055  00000-0 -39518-5 0  9990\u000a2 25407  71.0129  72.0044 0006049 144.6205 215.5321 14.15759167949870\u000a
p5391
ssS'31793'
p5392
(dp5393
g4
(lp5394
(dp5395
VCOMMENTCODE
p5396
NsVRCS_SIZE
p5397
VLARGE
p5398
sVCOUNTRY
p5399
VCIS
p5400
sVLAUNCH_YEAR
p5401
V2007
p5402
sVFILE
p5403
V5999
p5404
sVCOMMENT
p5405
NsVRCSVALUE
p5406
V0
sVDECAY
p5407
NsVOBJECT_ID
p5408
V2007-029B
p5409
sVOBJECT_NAME
p5410
VSL-16 R/B
p5411
sVLAUNCH_NUM
p5412
V29
p5413
sVLAUNCH_PIECE
p5414
VB
sVSATNAME
p5415
VSL-16 R/B
p5416
sVOBJECT_TYPE
p5417
VROCKET BODY
p5418
sVSITE
p5419
VTTMTR
p5420
sVPERIOD
p5421
V101.81
p5422
sVCURRENT
p5423
VY
sVNORAD_CAT_ID
p5424
V31793
p5425
sVINCLINATION
p5426
V70.98
p5427
sVINTLDES
p5428
V2007-029B
p5429
sVPERIGEE
p5430
V843
p5431
sVLAUNCH
p5432
V2007-06-29
p5433
sVOBJECT_NUMBER
p5434
V31793
p5435
sVAPOGEE
p5436
V846
p5437
sasg49
V1 31793U 07029B   16348.51179000 -.00000263  00000-0 -11221-3 0  9999\u000a2 31793  70.9770  59.1754 0002366 278.5327 173.2051 14.14374414488469\u000a
p5438
ssS'5118'
p5439
(dp5440
g4
(lp5441
(dp5442
VCOMMENTCODE
p5443
NsVRCS_SIZE
p5444
VLARGE
p5445
sVCOUNTRY
p5446
VCIS
p5447
sVLAUNCH_YEAR
p5448
V1971
p5449
sVFILE
p5450
V6009
p5451
sVCOMMENT
p5452
NsVRCSVALUE
p5453
V0
sVDECAY
p5454
NsVOBJECT_ID
p5455
V1971-028B
p5456
sVOBJECT_NAME
p5457
VSL-3 R/B
p5458
sVLAUNCH_NUM
p5459
V28
p5460
sVLAUNCH_PIECE
p5461
VB
sVSATNAME
p5462
VSL-3 R/B
p5463
sVOBJECT_TYPE
p5464
VROCKET BODY
p5465
sVSITE
p5466
VPKMTR
p5467
sVPERIOD
p5468
V95.16
p5469
sVCURRENT
p5470
VY
sVNORAD_CAT_ID
p5471
V5118
p5472
sVINCLINATION
p5473
V81.25
p5474
sVINTLDES
p5475
V1971-028B
p5476
sVPERIGEE
p5477
V492
p5478
sVLAUNCH
p5479
V1971-04-07
p5480
sVOBJECT_NUMBER
p5481
V5118
p5482
sVAPOGEE
p5483
V560
p5484
sasg49
V1 05118U 71028B   16348.87966125  .00000921  00000-0  48797-4 0  9990\u000a2 05118  81.2547   6.7925 0048849 165.6837 194.5788 15.13299159476185\u000a
p5485
ssS'23343'
p5486
(dp5487
g4
(lp5488
(dp5489
VCOMMENTCODE
p5490
NsVRCS_SIZE
p5491
VLARGE
p5492
sVCOUNTRY
p5493
VCIS
p5494
sVLAUNCH_YEAR
p5495
V1994
p5496
sVFILE
p5497
V6006
p5498
sVCOMMENT
p5499
NsVRCSVALUE
p5500
V0
sVDECAY
p5501
NsVOBJECT_ID
p5502
V1994-074B
p5503
sVOBJECT_NAME
p5504
VSL-16 R/B
p5505
sVLAUNCH_NUM
p5506
V74
p5507
sVLAUNCH_PIECE
p5508
VB
sVSATNAME
p5509
VSL-16 R/B
p5510
sVOBJECT_TYPE
p5511
VROCKET BODY
p5512
sVSITE
p5513
VTTMTR
p5514
sVPERIOD
p5515
V97.52
p5516
sVCURRENT
p5517
VY
sVNORAD_CAT_ID
p5518
V23343
p5519
sVINCLINATION
p5520
V98.18
p5521
sVINTLDES
p5522
V1994-074B
p5523
sVPERIGEE
p5524
V636
p5525
sVLAUNCH
p5526
V1994-11-04
p5527
sVOBJECT_NUMBER
p5528
V23343
p5529
sVAPOGEE
p5530
V644
p5531
sasg49
V1 23343U 94074B   16348.55476701 -.00000010  00000-0  62397-5 0  9990\u000a2 23343  98.1763  17.5528 0005931 316.2680 161.5021 14.76683281189430\u000a
p5532
ssS'13819'
p5533
(dp5534
g4
(lp5535
(dp5536
VCOMMENTCODE
p5537
NsVRCS_SIZE
p5538
VLARGE
p5539
sVCOUNTRY
p5540
VCIS
p5541
sVLAUNCH_YEAR
p5542
V1983
p5543
sVFILE
p5544
V5999
p5545
sVCOMMENT
p5546
NsVRCSVALUE
p5547
V0
sVDECAY
p5548
NsVOBJECT_ID
p5549
V1983-010B
p5550
sVOBJECT_NAME
p5551
VSL-3 R/B
p5552
sVLAUNCH_NUM
p5553
V10
p5554
sVLAUNCH_PIECE
p5555
VB
sVSATNAME
p5556
VSL-3 R/B
p5557
sVOBJECT_TYPE
p5558
VROCKET BODY
p5559
sVSITE
p5560
VPKMTR
p5561
sVPERIOD
p5562
V95.07
p5563
sVCURRENT
p5564
VY
sVNORAD_CAT_ID
p5565
V13819
p5566
sVINCLINATION
p5567
V81.12
p5568
sVINTLDES
p5569
V1983-010B
p5570
sVPERIGEE
p5571
V500
p5572
sVLAUNCH
p5573
V1983-02-16
p5574
sVOBJECT_NUMBER
p5575
V13819
p5576
sVAPOGEE
p5577
V544
p5578
sasg49
V1 13819U 83010B   16347.64941635  .00000748  00000-0  38594-4 0  9995\u000a2 13819  81.1151  17.3483 0031912 238.9007 120.9089 15.14713230845487\u000a
p5579
ssS'20465'
p5580
(dp5581
g4
(lp5582
(dp5583
VCOMMENTCODE
p5584
NsVRCS_SIZE
p5585
VLARGE
p5586
sVCOUNTRY
p5587
VCIS
p5588
sVLAUNCH_YEAR
p5589
V1990
p5590
sVFILE
p5591
V6007
p5592
sVCOMMENT
p5593
NsVRCSVALUE
p5594
V0
sVDECAY
p5595
NsVOBJECT_ID
p5596
V1990-010A
p5597
sVOBJECT_NAME
p5598
VCOSMOS 2058
p5599
sVLAUNCH_NUM
p5600
V10
p5601
sVLAUNCH_PIECE
p5602
VA
sVSATNAME
p5603
VCOSMOS 2058
p5604
sVOBJECT_TYPE
p5605
VPAYLOAD
p5606
sVSITE
p5607
VPKMTR
p5608
sVPERIOD
p5609
V96.17
p5610
sVCURRENT
p5611
VY
sVNORAD_CAT_ID
p5612
V20465
p5613
sVINCLINATION
p5614
V82.49
p5615
sVINTLDES
p5616
V1990-010A
p5617
sVPERIGEE
p5618
V564
p5619
sVLAUNCH
p5620
V1990-01-30
p5621
sVOBJECT_NUMBER
p5622
V20465
p5623
sVAPOGEE
p5624
V586
p5625
sasg49
V1 20465U 90010A   16348.18645242  .00000350  00000-0  27765-4 0  9990\u000a2 20465  82.4908  66.6804 0015287 195.6414 164.4338 14.97383826457504\u000a
p5626
ssS'20466'
p5627
(dp5628
g4
(lp5629
(dp5630
VCOMMENTCODE
p5631
NsVRCS_SIZE
p5632
VLARGE
p5633
sVCOUNTRY
p5634
VCIS
p5635
sVLAUNCH_YEAR
p5636
V1990
p5637
sVFILE
p5638
V6006
p5639
sVCOMMENT
p5640
NsVRCSVALUE
p5641
V0
sVDECAY
p5642
NsVOBJECT_ID
p5643
V1990-010B
p5644
sVOBJECT_NAME
p5645
VSL-14 R/B
p5646
sVLAUNCH_NUM
p5647
V10
p5648
sVLAUNCH_PIECE
p5649
VB
sVSATNAME
p5650
VSL-14 R/B
p5651
sVOBJECT_TYPE
p5652
VROCKET BODY
p5653
sVSITE
p5654
VPKMTR
p5655
sVPERIOD
p5656
V97.21
p5657
sVCURRENT
p5658
VY
sVNORAD_CAT_ID
p5659
V20466
p5660
sVINCLINATION
p5661
V82.50
p5662
sVINTLDES
p5663
V1990-010B
p5664
sVPERIGEE
p5665
V612
p5666
sVLAUNCH
p5667
V1990-01-30
p5668
sVOBJECT_NUMBER
p5669
V20466
p5670
sVAPOGEE
p5671
V639
p5672
sasg49
V1 20466U 90010B   16348.54056378  .00000103  00000-0  10244-4 0  9997\u000a2 20466  82.5023 186.3044 0019438 225.4819 134.4807 14.81257243450016\u000a
p5673
ssS'3230'
p5674
(dp5675
g4
(lp5676
(dp5677
VCOMMENTCODE
p5678
NsVRCS_SIZE
p5679
VLARGE
p5680
sVCOUNTRY
p5681
VCIS
p5682
sVLAUNCH_YEAR
p5683
V1968
p5684
sVFILE
p5685
V6006
p5686
sVCOMMENT
p5687
NsVRCSVALUE
p5688
V0
sVDECAY
p5689
NsVOBJECT_ID
p5690
V1968-040B
p5691
sVOBJECT_NAME
p5692
VSL-8 R/B
p5693
sVLAUNCH_NUM
p5694
V40
p5695
sVLAUNCH_PIECE
p5696
VB
sVSATNAME
p5697
VSL-8 R/B
p5698
sVOBJECT_TYPE
p5699
VROCKET BODY
p5700
sVSITE
p5701
VPKMTR
p5702
sVPERIOD
p5703
V96.64
p5704
sVCURRENT
p5705
VY
sVNORAD_CAT_ID
p5706
V3230
p5707
sVINCLINATION
p5708
V74.04
p5709
sVINTLDES
p5710
V1968-040B
p5711
sVPERIGEE
p5712
V575
p5713
sVLAUNCH
p5714
V1968-05-07
p5715
sVOBJECT_NUMBER
p5716
V3230
p5717
sVAPOGEE
p5718
V620
p5719
sasg49
V1 03230U 68040B   16348.33068129  .00000239  00000-0  28688-4 0  9990\u000a2 03230  74.0365 255.1125 0032041 256.9102 102.8503 14.90036813607839\u000a
p5720
ssS'17590'
p5721
(dp5722
g4
(lp5723
(dp5724
VCOMMENTCODE
p5725
NsVRCS_SIZE
p5726
VLARGE
p5727
sVCOUNTRY
p5728
VCIS
p5729
sVLAUNCH_YEAR
p5730
V1987
p5731
sVFILE
p5732
V6007
p5733
sVCOMMENT
p5734
NsVRCSVALUE
p5735
V0
sVDECAY
p5736
NsVOBJECT_ID
p5737
V1987-027B
p5738
sVOBJECT_NAME
p5739
VSL-16 R/B
p5740
sVLAUNCH_NUM
p5741
V27
p5742
sVLAUNCH_PIECE
p5743
VB
sVSATNAME
p5744
VSL-16 R/B
p5745
sVOBJECT_TYPE
p5746
VROCKET BODY
p5747
sVSITE
p5748
VTTMTR
p5749
sVPERIOD
p5750
V101.64
p5751
sVCURRENT
p5752
VY
sVNORAD_CAT_ID
p5753
V17590
p5754
sVINCLINATION
p5755
V71.00
p5756
sVINTLDES
p5757
V1987-027B
p5758
sVPERIGEE
p5759
V831
p5760
sVLAUNCH
p5761
V1987-03-18
p5762
sVOBJECT_NUMBER
p5763
V17590
p5764
sVAPOGEE
p5765
V841
p5766
sasg49
V1 17590U 87027B   16348.64989836  .00000081  00000-0  64501-4 0  9990\u000a2 17590  71.0003 180.6673 0006949 239.0744 120.9697 14.16734841537843\u000a
p5767
ssS'21422'
p5768
(dp5769
g4
(lp5770
(dp5771
VCOMMENTCODE
p5772
NsVRCS_SIZE
p5773
VLARGE
p5774
sVCOUNTRY
p5775
VCIS
p5776
sVLAUNCH_YEAR
p5777
V1991
p5778
sVFILE
p5779
V6006
p5780
sVCOMMENT
p5781
NsVRCSVALUE
p5782
V0
sVDECAY
p5783
NsVOBJECT_ID
p5784
V1991-042A
p5785
sVOBJECT_NAME
p5786
VCOSMOS 2151
p5787
sVLAUNCH_NUM
p5788
V42
p5789
sVLAUNCH_PIECE
p5790
VA
sVSATNAME
p5791
VCOSMOS 2151
p5792
sVOBJECT_TYPE
p5793
VPAYLOAD
p5794
sVSITE
p5795
VPKMTR
p5796
sVPERIOD
p5797
V96.53
p5798
sVCURRENT
p5799
VY
sVNORAD_CAT_ID
p5800
V21422
p5801
sVINCLINATION
p5802
V82.50
p5803
sVINTLDES
p5804
V1991-042A
p5805
sVPERIGEE
p5806
V583
p5807
sVLAUNCH
p5808
V1991-06-13
p5809
sVOBJECT_NUMBER
p5810
V21422
p5811
sVAPOGEE
p5812
V602
p5813
sasg49
V1 21422U 91042A   16348.19934248  .00000261  00000-0  23387-4 0  9995\u000a2 21422  82.5018  63.4315 0014088 189.4502 170.6455 14.91746680380778\u000a
p5814
ssS'21423'
p5815
(dp5816
g4
(lp5817
(dp5818
VCOMMENTCODE
p5819
NsVRCS_SIZE
p5820
VLARGE
p5821
sVCOUNTRY
p5822
VCIS
p5823
sVLAUNCH_YEAR
p5824
V1991
p5825
sVFILE
p5826
V6004
p5827
sVCOMMENT
p5828
NsVRCSVALUE
p5829
V0
sVDECAY
p5830
NsVOBJECT_ID
p5831
V1991-042B
p5832
sVOBJECT_NAME
p5833
VSL-14 R/B
p5834
sVLAUNCH_NUM
p5835
V42
p5836
sVLAUNCH_PIECE
p5837
VB
sVSATNAME
p5838
VSL-14 R/B
p5839
sVOBJECT_TYPE
p5840
VROCKET BODY
p5841
sVSITE
p5842
VPKMTR
p5843
sVPERIOD
p5844
V97.32
p5845
sVCURRENT
p5846
VY
sVNORAD_CAT_ID
p5847
V21423
p5848
sVINCLINATION
p5849
V82.49
p5850
sVINTLDES
p5851
V1991-042B
p5852
sVPERIGEE
p5853
V617
p5854
sVLAUNCH
p5855
V1991-06-13
p5856
sVOBJECT_NUMBER
p5857
V21423
p5858
sVAPOGEE
p5859
V643
p5860
sasg49
V1 21423U 91042B   16348.84002583  .00000079  00000-0  74081-5 0  9991\u000a2 21423  82.4931 134.6230 0018729 134.3626 225.9125 14.79669939375174\u000a
p5861
ssS'877'
p5862
(dp5863
g4
(lp5864
(dp5865
VCOMMENTCODE
p5866
NsVRCS_SIZE
p5867
VLARGE
p5868
sVCOUNTRY
p5869
VCIS
p5870
sVLAUNCH_YEAR
p5871
V1964
p5872
sVFILE
p5873
V6006
p5874
sVCOMMENT
p5875
NsVRCSVALUE
p5876
V0
sVDECAY
p5877
NsVOBJECT_ID
p5878
V1964-053B
p5879
sVOBJECT_NAME
p5880
VSL-3 R/B
p5881
sVLAUNCH_NUM
p5882
V53
p5883
sVLAUNCH_PIECE
p5884
VB
sVSATNAME
p5885
VSL-3 R/B
p5886
sVOBJECT_TYPE
p5887
VROCKET BODY
p5888
sVSITE
p5889
VTTMTR
p5890
sVPERIOD
p5891
V98.68
p5892
sVCURRENT
p5893
VY
sVNORAD_CAT_ID
p5894
V877
p5895
sVINCLINATION
p5896
V65.08
p5897
sVINTLDES
p5898
V1964-053B
p5899
sVPERIGEE
p5900
V646
p5901
sVLAUNCH
p5902
V1964-08-28
p5903
sVOBJECT_NUMBER
p5904
V877
p5905
sVAPOGEE
p5906
V745
p5907
sasg49
V1 00877U 64053B   16348.53178038 -.00000068  00000-0  11164-4 0  9999\u000a2 00877  65.0778 114.7850 0069841 197.7086 162.1578 14.59272158774427\u000a
p5908
ssS'16908'
p5909
(dp5910
g4
(lp5911
(dp5912
VCOMMENTCODE
p5913
NsVRCS_SIZE
p5914
VLARGE
p5915
sVCOUNTRY
p5916
VJPN
p5917
sVLAUNCH_YEAR
p5918
V1986
p5919
sVFILE
p5920
V6006
p5921
sVCOMMENT
p5922
NsVRCSVALUE
p5923
V0
sVDECAY
p5924
NsVOBJECT_ID
p5925
V1986-061A
p5926
sVOBJECT_NAME
p5927
VEGS (AJISAI)
p5928
sVLAUNCH_NUM
p5929
V61
p5930
sVLAUNCH_PIECE
p5931
VA
sVSATNAME
p5932
VEGS (AJISAI)
p5933
sVOBJECT_TYPE
p5934
VPAYLOAD
p5935
sVSITE
p5936
VTNSTA
p5937
sVPERIOD
p5938
V115.71
p5939
sVCURRENT
p5940
VY
sVNORAD_CAT_ID
p5941
V16908
p5942
sVINCLINATION
p5943
V50.01
p5944
sVINTLDES
p5945
V1986-061A
p5946
sVPERIGEE
p5947
V1479
p5948
sVLAUNCH
p5949
V1986-08-12
p5950
sVOBJECT_NUMBER
p5951
V16908
p5952
sVAPOGEE
p5953
V1497
p5954
sasg49
V1 16908U 86061A   16347.88513800 -.00000099  00000-0 -14500-4 0  9993\u000a2 16908  50.0113  27.3946 0011311 340.0098  71.4636 12.44484640 48240\u000a
p5955
ssS'13068'
p5956
(dp5957
g4
(lp5958
(dp5959
VCOMMENTCODE
p5960
NsVRCS_SIZE
p5961
VLARGE
p5962
sVCOUNTRY
p5963
VCIS
p5964
sVLAUNCH_YEAR
p5965
V1982
p5966
sVFILE
p5967
V6006
p5968
sVCOMMENT
p5969
NsVRCSVALUE
p5970
V0
sVDECAY
p5971
NsVOBJECT_ID
p5972
V1982-013B
p5973
sVOBJECT_NAME
p5974
VSL-3 R/B
p5975
sVLAUNCH_NUM
p5976
V13
p5977
sVLAUNCH_PIECE
p5978
VB
sVSATNAME
p5979
VSL-3 R/B
p5980
sVOBJECT_TYPE
p5981
VROCKET BODY
p5982
sVSITE
p5983
VPKMTR
p5984
sVPERIOD
p5985
V95.57
p5986
sVCURRENT
p5987
VY
sVNORAD_CAT_ID
p5988
V13068
p5989
sVINCLINATION
p5990
V81.20
p5991
sVINTLDES
p5992
V1982-013B
p5993
sVPERIGEE
p5994
V531
p5995
sVLAUNCH
p5996
V1982-02-19
p5997
sVOBJECT_NUMBER
p5998
V13068
p5999
sVAPOGEE
p6000
V561
p6001
sasg49
V1 13068U 82013B   16348.23352569 -.00000002  00000-0 -17173-5 0  9997\u000a2 13068  81.2042  74.7325 0021412 206.7235 153.2888 15.06790287895495\u000a
p6002
ssS'21819'
p6003
(dp6004
g4
(lp6005
(dp6006
VCOMMENTCODE
p6007
NsVRCS_SIZE
p6008
VLARGE
p6009
sVCOUNTRY
p6010
VCIS
p6011
sVLAUNCH_YEAR
p6012
V1991
p6013
sVFILE
p6014
V6006
p6015
sVCOMMENT
p6016
NsVRCSVALUE
p6017
V0
sVDECAY
p6018
NsVOBJECT_ID
p6019
V1991-086A
p6020
sVOBJECT_NAME
p6021
VINTERCOSMOS 25
p6022
sVLAUNCH_NUM
p6023
V86
p6024
sVLAUNCH_PIECE
p6025
VA
sVSATNAME
p6026
VINTERCOSMOS 25
p6027
sVOBJECT_TYPE
p6028
VPAYLOAD
p6029
sVSITE
p6030
VPKMTR
p6031
sVPERIOD
p6032
V119.56
p6033
sVCURRENT
p6034
VY
sVNORAD_CAT_ID
p6035
V21819
p6036
sVINCLINATION
p6037
V82.55
p6038
sVINTLDES
p6039
V1991-086A
p6040
sVPERIGEE
p6041
V434
p6042
sVLAUNCH
p6043
V1991-12-18
p6044
sVOBJECT_NUMBER
p6045
V21819
p6046
sVAPOGEE
p6047
V2888
p6048
sasg49
V1 21819U 91086A   16348.71840406  .00000316  00000-0  53859-4 0  9991\u000a2 21819  82.5511 174.5805 1526008 121.5460 254.3747 12.04401885 89952\u000a
p6049
ssS'19257'
p6050
(dp6051
g4
(lp6052
(dp6053
VCOMMENTCODE
p6054
NsVRCS_SIZE
p6055
VLARGE
p6056
sVCOUNTRY
p6057
VCIS
p6058
sVLAUNCH_YEAR
p6059
V1988
p6060
sVFILE
p6061
V6006
p6062
sVCOMMENT
p6063
NsVRCSVALUE
p6064
V0
sVDECAY
p6065
NsVOBJECT_ID
p6066
V1988-053B
p6067
sVOBJECT_NAME
p6068
VSL-8 R/B
p6069
sVLAUNCH_NUM
p6070
V53
p6071
sVLAUNCH_PIECE
p6072
VB
sVSATNAME
p6073
VSL-8 R/B
p6074
sVOBJECT_TYPE
p6075
VROCKET BODY
p6076
sVSITE
p6077
VPKMTR
p6078
sVPERIOD
p6079
V100.18
p6080
sVCURRENT
p6081
VY
sVNORAD_CAT_ID
p6082
V19257
p6083
sVINCLINATION
p6084
V74.05
p6085
sVINTLDES
p6086
V1988-053B
p6087
sVPERIGEE
p6088
V753
p6089
sVLAUNCH
p6090
V1988-06-21
p6091
sVOBJECT_NUMBER
p6092
V19257
p6093
sVAPOGEE
p6094
V781
p6095
sasg49
V1 19257U 88053B   16348.87459416  .00000084  00000-0  36824-4 0  9993\u000a2 19257  74.0476 197.2127 0019723 136.2395 322.8916 14.37342716492143\u000a
p6096
ssS'21876'
p6097
(dp6098
g4
(lp6099
(dp6100
VCOMMENTCODE
p6101
NsVRCS_SIZE
p6102
VLARGE
p6103
sVCOUNTRY
p6104
VCIS
p6105
sVLAUNCH_YEAR
p6106
V1992
p6107
sVFILE
p6108
V6005
p6109
sVCOMMENT
p6110
NsVRCSVALUE
p6111
V0
sVDECAY
p6112
NsVOBJECT_ID
p6113
V1992-008B
p6114
sVOBJECT_NAME
p6115
VSL-8 R/B
p6116
sVLAUNCH_NUM
p6117
V8
sVLAUNCH_PIECE
p6118
VB
sVSATNAME
p6119
VSL-8 R/B
p6120
sVOBJECT_TYPE
p6121
VROCKET BODY
p6122
sVSITE
p6123
VPKMTR
p6124
sVPERIOD
p6125
V104.68
p6126
sVCURRENT
p6127
VY
sVNORAD_CAT_ID
p6128
V21876
p6129
sVINCLINATION
p6130
V82.93
p6131
sVINTLDES
p6132
V1992-008B
p6133
sVPERIGEE
p6134
V954
p6135
sVLAUNCH
p6136
V1992-02-17
p6137
sVOBJECT_NUMBER
p6138
V21876
p6139
sVAPOGEE
p6140
V1005
p6141
sasg49
V1 21876U 92008B   16348.85618779  .00000029  00000-0  14536-4 0  9990\u000a2 21876  82.9279 254.9349 0034348 189.5359 234.7727 13.75597406245900\u000a
p6142
ssS'20262'
p6143
(dp6144
g4
(lp6145
(dp6146
VCOMMENTCODE
p6147
NsVRCS_SIZE
p6148
VLARGE
p6149
sVCOUNTRY
p6150
VCIS
p6151
sVLAUNCH_YEAR
p6152
V1989
p6153
sVFILE
p6154
V6002
p6155
sVCOMMENT
p6156
NsVRCSVALUE
p6157
V0
sVDECAY
p6158
NsVOBJECT_ID
p6159
V1989-080C
p6160
sVOBJECT_NAME
p6161
VSL-14 R/B
p6162
sVLAUNCH_NUM
p6163
V80
p6164
sVLAUNCH_PIECE
p6165
VC
sVSATNAME
p6166
VSL-14 R/B
p6167
sVOBJECT_TYPE
p6168
VROCKET BODY
p6169
sVSITE
p6170
VPKMTR
p6171
sVPERIOD
p6172
V115.31
p6173
sVCURRENT
p6174
VY
sVNORAD_CAT_ID
p6175
V20262
p6176
sVINCLINATION
p6177
V82.59
p6178
sVINTLDES
p6179
V1989-080C
p6180
sVPERIGEE
p6181
V499
p6182
sVLAUNCH
p6183
V1989-09-28
p6184
sVOBJECT_NUMBER
p6185
V20262
p6186
sVAPOGEE
p6187
V2440
p6188
sasg49
V1 20262U 89080C   16348.55627732  .00000042  00000-0  11300-4 0  9991\u000a2 20262  82.5919 174.9904 1236834 319.8148  31.7531 12.48839174238542\u000a
p6189
ssS'20261'
p6190
(dp6191
g4
(lp6192
(dp6193
VCOMMENTCODE
p6194
NsVRCS_SIZE
p6195
VLARGE
p6196
sVCOUNTRY
p6197
VCIS
p6198
sVLAUNCH_YEAR
p6199
V1989
p6200
sVFILE
p6201
V6006
p6202
sVCOMMENT
p6203
NsVRCSVALUE
p6204
V0
sVDECAY
p6205
NsVOBJECT_ID
p6206
V1989-080A
p6207
sVOBJECT_NAME
p6208
VINTERCOSMOS 24
p6209
sVLAUNCH_NUM
p6210
V80
p6211
sVLAUNCH_PIECE
p6212
VA
sVSATNAME
p6213
VINTERCOSMOS 24
p6214
sVOBJECT_TYPE
p6215
VPAYLOAD
p6216
sVSITE
p6217
VPKMTR
p6218
sVPERIOD
p6219
V114.66
p6220
sVCURRENT
p6221
VY
sVNORAD_CAT_ID
p6222
V20261
p6223
sVINCLINATION
p6224
V82.59
p6225
sVINTLDES
p6226
V1989-080A
p6227
sVPERIGEE
p6228
V498
p6229
sVLAUNCH
p6230
V1989-09-28
p6231
sVOBJECT_NUMBER
p6232
V20261
p6233
sVAPOGEE
p6234
V2382
p6235
sasg49
V1 20261U 89080A   16348.55475057  .00000069  00000-0  13291-4 0  9991\u000a2 20261  82.5933 130.2118 1204643 164.7916 199.3030 12.55853173242668\u000a
p6236
ssS'20663'
p6237
(dp6238
g4
(lp6239
(dp6240
VCOMMENTCODE
p6241
NsVRCS_SIZE
p6242
VLARGE
p6243
sVCOUNTRY
p6244
VCIS
p6245
sVLAUNCH_YEAR
p6246
V1990
p6247
sVFILE
p6248
V6005
p6249
sVCOMMENT
p6250
NsVRCSVALUE
p6251
V0
sVDECAY
p6252
NsVOBJECT_ID
p6253
V1990-055A
p6254
sVOBJECT_NAME
p6255
VCOSMOS 2084
p6256
sVLAUNCH_NUM
p6257
V55
p6258
sVLAUNCH_PIECE
p6259
VA
sVSATNAME
p6260
VCOSMOS 2084
p6261
sVOBJECT_TYPE
p6262
VPAYLOAD
p6263
sVSITE
p6264
VPKMTR
p6265
sVPERIOD
p6266
V96.55
p6267
sVCURRENT
p6268
VY
sVNORAD_CAT_ID
p6269
V20663
p6270
sVINCLINATION
p6271
V62.79
p6272
sVINTLDES
p6273
V1990-055A
p6274
sVPERIGEE
p6275
V498
p6276
sVLAUNCH
p6277
V1990-06-21
p6278
sVOBJECT_NUMBER
p6279
V20663
p6280
sVAPOGEE
p6281
V689
p6282
sasg49
V1 20663U 90055A   16348.51452944  .00000066  00000-0  23612-4 0  9992\u000a2 20663  62.7917 127.7617 0136542  71.7980 289.7922 14.91432102432112\u000a
p6283
ssS'20666'
p6284
(dp6285
g4
(lp6286
(dp6287
VCOMMENTCODE
p6288
NsVRCS_SIZE
p6289
VLARGE
p6290
sVCOUNTRY
p6291
VCIS
p6292
sVLAUNCH_YEAR
p6293
V1990
p6294
sVFILE
p6295
V6006
p6296
sVCOMMENT
p6297
NsVRCSVALUE
p6298
V0
sVDECAY
p6299
NsVOBJECT_ID
p6300
V1990-055D
p6301
sVOBJECT_NAME
p6302
VSL-6 R/B(2)
p6303
sVLAUNCH_NUM
p6304
V55
p6305
sVLAUNCH_PIECE
p6306
VD
sVSATNAME
p6307
VSL-6 R/B(2)
p6308
sVOBJECT_TYPE
p6309
VROCKET BODY
p6310
sVSITE
p6311
VPKMTR
p6312
sVPERIOD
p6313
V96.53
p6314
sVCURRENT
p6315
VY
sVNORAD_CAT_ID
p6316
V20666
p6317
sVINCLINATION
p6318
V62.78
p6319
sVINTLDES
p6320
V1990-055D
p6321
sVPERIGEE
p6322
V497
p6323
sVLAUNCH
p6324
V1990-06-21
p6325
sVOBJECT_NUMBER
p6326
V20666
p6327
sVAPOGEE
p6328
V688
p6329
sasg49
V1 20666U 90055D   16348.21839134  .00000027  00000-0  20293-4 0  9991\u000a2 20666  62.7846  48.0448 0136628  90.9048 270.7703 14.91793519433431\u000a
p6330
ssS'15772'
p6331
(dp6332
g4
(lp6333
(dp6334
VCOMMENTCODE
p6335
NsVRCS_SIZE
p6336
VLARGE
p6337
sVCOUNTRY
p6338
VCIS
p6339
sVLAUNCH_YEAR
p6340
V1985
p6341
sVFILE
p6342
V6006
p6343
sVCOMMENT
p6344
NsVRCSVALUE
p6345
V0
sVDECAY
p6346
NsVOBJECT_ID
p6347
V1985-042D
p6348
sVOBJECT_NAME
p6349
VSL-12 R/B(2)
p6350
sVLAUNCH_NUM
p6351
V42
p6352
sVLAUNCH_PIECE
p6353
VD
sVSATNAME
p6354
VSL-12 R/B(2)
p6355
sVOBJECT_TYPE
p6356
VROCKET BODY
p6357
sVSITE
p6358
VTTMTR
p6359
sVPERIOD
p6360
V101.32
p6361
sVCURRENT
p6362
VY
sVNORAD_CAT_ID
p6363
V15772
p6364
sVINCLINATION
p6365
V71.11
p6366
sVINTLDES
p6367
V1985-042D
p6368
sVPERIGEE
p6369
V795
p6370
sVLAUNCH
p6371
V1985-05-30
p6372
sVOBJECT_NUMBER
p6373
V15772
p6374
sVAPOGEE
p6375
V848
p6376
sasg49
V1 15772U 85042D   16348.24582546  .00000053  00000-0  45913-4 0  9993\u000a2 15772  71.1081   8.0456 0036784 328.7070 101.6008 14.21190417635033\u000a
p6377
ssS'17589'
p6378
(dp6379
g4
(lp6380
(dp6381
VCOMMENTCODE
p6382
NsVRCS_SIZE
p6383
VLARGE
p6384
sVCOUNTRY
p6385
VCIS
p6386
sVLAUNCH_YEAR
p6387
V1987
p6388
sVFILE
p6389
V5970
p6390
sVCOMMENT
p6391
NsVRCSVALUE
p6392
V0
sVDECAY
p6393
NsVOBJECT_ID
p6394
V1987-027A
p6395
sVOBJECT_NAME
p6396
VCOSMOS 1833
p6397
sVLAUNCH_NUM
p6398
V27
p6399
sVLAUNCH_PIECE
p6400
VA
sVSATNAME
p6401
VCOSMOS 1833
p6402
sVOBJECT_TYPE
p6403
VPAYLOAD
p6404
sVSITE
p6405
VTTMTR
p6406
sVPERIOD
p6407
V101.92
p6408
sVCURRENT
p6409
VY
sVNORAD_CAT_ID
p6410
V17589
p6411
sVINCLINATION
p6412
V70.92
p6413
sVINTLDES
p6414
V1987-027A
p6415
sVPERIGEE
p6416
V829
p6417
sVLAUNCH
p6418
V1987-03-18
p6419
sVOBJECT_NUMBER
p6420
V17589
p6421
sVAPOGEE
p6422
V870
p6423
sasg49
V1 17589U 87027A   16347.93313603 -.00000224 +00000-0 -94249-4 0  9995\u000a2 17589 070.9202 216.1511 0028293 241.7968 118.0295 14.12889617533767\u000a
p6424
ssS'19120'
p6425
(dp6426
g4
(lp6427
(dp6428
VCOMMENTCODE
p6429
NsVRCS_SIZE
p6430
VLARGE
p6431
sVCOUNTRY
p6432
VCIS
p6433
sVLAUNCH_YEAR
p6434
V1988
p6435
sVFILE
p6436
V6006
p6437
sVCOMMENT
p6438
NsVRCSVALUE
p6439
V0
sVDECAY
p6440
NsVOBJECT_ID
p6441
V1988-039B
p6442
sVOBJECT_NAME
p6443
VSL-16 R/B
p6444
sVLAUNCH_NUM
p6445
V39
p6446
sVLAUNCH_PIECE
p6447
VB
sVSATNAME
p6448
VSL-16 R/B
p6449
sVOBJECT_TYPE
p6450
VROCKET BODY
p6451
sVSITE
p6452
VTTMTR
p6453
sVPERIOD
p6454
V101.47
p6455
sVCURRENT
p6456
VY
sVNORAD_CAT_ID
p6457
V19120
p6458
sVINCLINATION
p6459
V71.01
p6460
sVINTLDES
p6461
V1988-039B
p6462
sVPERIGEE
p6463
V814
p6464
sVLAUNCH
p6465
V1988-05-15
p6466
sVOBJECT_NUMBER
p6467
V19120
p6468
sVAPOGEE
p6469
V842
p6470
sasg49
V1 19120U 88039B   16348.22290681  .00000068  00000-0  55388-4 0  9990\u000a2 19120  71.0148 357.8522 0019697 116.1184 244.1970 14.19162729480003\u000a
p6471
ssS'39766'
p6472
(dp6473
g4
(lp6474
(dp6475
VCOMMENTCODE
p6476
NsVRCS_SIZE
p6477
VLARGE
p6478
sVCOUNTRY
p6479
VJPN
p6480
sVLAUNCH_YEAR
p6481
V2014
p6482
sVFILE
p6483
V6006
p6484
sVCOMMENT
p6485
NsVRCSVALUE
p6486
V0
sVDECAY
p6487
NsVOBJECT_ID
p6488
V2014-029A
p6489
sVOBJECT_NAME
p6490
VALOS 2
p6491
sVLAUNCH_NUM
p6492
V29
p6493
sVLAUNCH_PIECE
p6494
VA
sVSATNAME
p6495
VALOS 2
p6496
sVOBJECT_TYPE
p6497
VPAYLOAD
p6498
sVSITE
p6499
VTNSTA
p6500
sVPERIOD
p6501
V97.33
p6502
sVCURRENT
p6503
VY
sVNORAD_CAT_ID
p6504
V39766
p6505
sVINCLINATION
p6506
V97.92
p6507
sVINTLDES
p6508
V2014-029A
p6509
sVPERIGEE
p6510
V630
p6511
sVLAUNCH
p6512
V2014-05-24
p6513
sVOBJECT_NUMBER
p6514
V39766
p6515
sVAPOGEE
p6516
V632
p6517
sasg49
V1 39766U 14029A   16348.80100159  .00000193  00000-0  32696-4 0  9996\u000a2 39766  97.9217  82.7994 0001414  84.7651 275.3734 14.79473036138195\u000a
p6518
ssS'21397'
p6519
(dp6520
g4
(lp6521
(dp6522
VCOMMENTCODE
p6523
NsVRCS_SIZE
p6524
VLARGE
p6525
sVCOUNTRY
p6526
VCIS
p6527
sVLAUNCH_YEAR
p6528
V1991
p6529
sVFILE
p6530
V6006
p6531
sVCOMMENT
p6532
NsVRCSVALUE
p6533
V0
sVDECAY
p6534
NsVOBJECT_ID
p6535
V1991-039A
p6536
sVOBJECT_NAME
p6537
VOKEAN 3
p6538
sVLAUNCH_NUM
p6539
V39
p6540
sVLAUNCH_PIECE
p6541
VA
sVSATNAME
p6542
VOKEAN 3
p6543
sVOBJECT_TYPE
p6544
VPAYLOAD
p6545
sVSITE
p6546
VPKMTR
p6547
sVPERIOD
p6548
V96.49
p6549
sVCURRENT
p6550
VY
sVNORAD_CAT_ID
p6551
V21397
p6552
sVINCLINATION
p6553
V82.52
p6554
sVINTLDES
p6555
V1991-039A
p6556
sVPERIGEE
p6557
V577
p6558
sVLAUNCH
p6559
V1991-06-04
p6560
sVOBJECT_NUMBER
p6561
V21397
p6562
sVAPOGEE
p6563
V604
p6564
sasg49
V1 21397U 91039A   16348.47266662  .00000282  00000-0  24948-4 0  9998\u000a2 21397  82.5213 314.7956 0019104 134.6904 225.5876 14.92376449382087\u000a
p6565
ssS'16111'
p6566
(dp6567
g4
(lp6568
(dp6569
VCOMMENTCODE
p6570
NsVRCS_SIZE
p6571
VLARGE
p6572
sVCOUNTRY
p6573
VCIS
p6574
sVLAUNCH_YEAR
p6575
V1985
p6576
sVFILE
p6577
V6006
p6578
sVCOMMENT
p6579
NsVRCSVALUE
p6580
V0
sVDECAY
p6581
NsVOBJECT_ID
p6582
V1985-090B
p6583
sVOBJECT_NAME
p6584
VSL-3 R/B
p6585
sVLAUNCH_NUM
p6586
V90
p6587
sVLAUNCH_PIECE
p6588
VB
sVSATNAME
p6589
VSL-3 R/B
p6590
sVOBJECT_TYPE
p6591
VROCKET BODY
p6592
sVSITE
p6593
VTTMTR
p6594
sVPERIOD
p6595
V92.87
p6596
sVCURRENT
p6597
VY
sVNORAD_CAT_ID
p6598
V16111
p6599
sVINCLINATION
p6600
V97.36
p6601
sVINTLDES
p6602
V1985-090B
p6603
sVPERIGEE
p6604
V404
p6605
sVLAUNCH
p6606
V1985-10-03
p6607
sVOBJECT_NUMBER
p6608
V16111
p6609
sVAPOGEE
p6610
V426
p6611
sasg49
V1 16111U 85090B   16348.84770031  .00003723  00000-0  66383-4 0  9999\u000a2 16111  97.3582  90.1118 0016290 341.6562  18.4100 15.50623618715555\u000a
p6612
ssS'12465'
p6613
(dp6614
g4
(lp6615
(dp6616
VCOMMENTCODE
p6617
NsVRCS_SIZE
p6618
VLARGE
p6619
sVCOUNTRY
p6620
VCIS
p6621
sVLAUNCH_YEAR
p6622
V1981
p6623
sVFILE
p6624
V6006
p6625
sVCOMMENT
p6626
NsVRCSVALUE
p6627
V0
sVDECAY
p6628
NsVOBJECT_ID
p6629
V1981-046B
p6630
sVOBJECT_NAME
p6631
VSL-3 R/B
p6632
sVLAUNCH_NUM
p6633
V46
p6634
sVLAUNCH_PIECE
p6635
VB
sVSATNAME
p6636
VSL-3 R/B
p6637
sVOBJECT_TYPE
p6638
VROCKET BODY
p6639
sVSITE
p6640
VPKMTR
p6641
sVPERIOD
p6642
V95.14
p6643
sVCURRENT
p6644
VY
sVNORAD_CAT_ID
p6645
V12465
p6646
sVINCLINATION
p6647
V81.24
p6648
sVINTLDES
p6649
V1981-046B
p6650
sVPERIGEE
p6651
V502
p6652
sVLAUNCH
p6653
V1981-05-19
p6654
sVOBJECT_NUMBER
p6655
V12465
p6656
sVAPOGEE
p6657
V549
p6658
sasg49
V1 12465U 81046B   16348.21837133  .00000097  00000-0  39290-5 0  9991\u000a2 12465  81.2441 238.0064 0034084 220.9921 138.8744 15.13636066939325\u000a
p6659
ssS'38341'
p6660
(dp6661
g4
(lp6662
(dp6663
VCOMMENTCODE
p6664
NsVRCS_SIZE
p6665
VLARGE
p6666
sVCOUNTRY
p6667
VJPN
p6668
sVLAUNCH_YEAR
p6669
V2012
p6670
sVFILE
p6671
V6006
p6672
sVCOMMENT
p6673
NsVRCSVALUE
p6674
V0
sVDECAY
p6675
NsVOBJECT_ID
p6676
V2012-025E
p6677
sVOBJECT_NAME
p6678
VH-2A R/B
p6679
sVLAUNCH_NUM
p6680
V25
p6681
sVLAUNCH_PIECE
p6682
VE
sVSATNAME
p6683
VH-2A R/B
p6684
sVOBJECT_TYPE
p6685
VROCKET BODY
p6686
sVSITE
p6687
VTNSTA
p6688
sVPERIOD
p6689
V97.07
p6690
sVCURRENT
p6691
VY
sVNORAD_CAT_ID
p6692
V38341
p6693
sVINCLINATION
p6694
V98.46
p6695
sVINTLDES
p6696
V2012-025E
p6697
sVPERIGEE
p6698
V579
p6699
sVLAUNCH
p6700
V2012-05-17
p6701
sVOBJECT_NUMBER
p6702
V38341
p6703
sVAPOGEE
p6704
V658
p6705
sasg49
V1 38341U 12025E   16348.35301450  .00000207  00000-0  32120-4 0  9993\u000a2 38341  98.4574  48.7953 0056704  37.0042 323.5060 14.83471089247324\u000a
p6706
ss.